
build/main.elf:     file format elf32-littlearm


Disassembly of section .text:

08000000 <vectors>:
 8000000:	20005000 	andcs	r5, r0, r0
 8000004:	08000fa1 	stmdaeq	r0, {r0, r5, r7, r8, r9, sl, fp}
	...
 800003c:	08001001 	stmdaeq	r0, {r0, ip}
	...
 800004c:	08001011 	stmdaeq	r0, {r0, r4, ip}
	...
 80000e4:	0800103d 	stmdaeq	r0, {r0, r2, r3, r4, r5, ip}

080000e8 <main>:
 80000e8:	b580      	push	{r7, lr}
 80000ea:	af00      	add	r7, sp, #0
 80000ec:	f000 fe70 	bl	8000dd0 <systickInit>
 80000f0:	2300      	movs	r3, #0
 80000f2:	2203      	movs	r2, #3
 80000f4:	210d      	movs	r1, #13
 80000f6:	2003      	movs	r0, #3
 80000f8:	f000 f832 	bl	8000160 <initGPIO>
 80000fc:	f000 ffb8 	bl	8001070 <initRTC>
 8000100:	2002      	movs	r0, #2
 8000102:	f000 fbd9 	bl	80008b8 <oled_init>
 8000106:	2002      	movs	r0, #2
 8000108:	f000 fc94 	bl	8000a34 <oled_blank>
 800010c:	210d      	movs	r1, #13
 800010e:	2003      	movs	r0, #3
 8000110:	f000 f9c2 	bl	8000498 <toggleGPIO>
 8000114:	2014      	movs	r0, #20
 8000116:	f000 feb1 	bl	8000e7c <DelayMs>
 800011a:	480e      	ldr	r0, [pc, #56]	; (8000154 <main+0x6c>)
 800011c:	f000 fd60 	bl	8000be0 <oled_clear_buffer>
 8000120:	490c      	ldr	r1, [pc, #48]	; (8000154 <main+0x6c>)
 8000122:	480d      	ldr	r0, [pc, #52]	; (8000158 <main+0x70>)
 8000124:	f000 fd80 	bl	8000c28 <oled_update_buffer>
 8000128:	2001      	movs	r0, #1
 800012a:	f000 fea7 	bl	8000e7c <DelayMs>
 800012e:	4909      	ldr	r1, [pc, #36]	; (8000154 <main+0x6c>)
 8000130:	2002      	movs	r0, #2
 8000132:	f000 fdff 	bl	8000d34 <print_buffer>
 8000136:	4807      	ldr	r0, [pc, #28]	; (8000154 <main+0x6c>)
 8000138:	f000 fd52 	bl	8000be0 <oled_clear_buffer>
 800013c:	4905      	ldr	r1, [pc, #20]	; (8000154 <main+0x6c>)
 800013e:	4807      	ldr	r0, [pc, #28]	; (800015c <main+0x74>)
 8000140:	f000 fd72 	bl	8000c28 <oled_update_buffer>
 8000144:	2001      	movs	r0, #1
 8000146:	f000 fe99 	bl	8000e7c <DelayMs>
 800014a:	4902      	ldr	r1, [pc, #8]	; (8000154 <main+0x6c>)
 800014c:	2002      	movs	r0, #2
 800014e:	f000 fdf1 	bl	8000d34 <print_buffer>
 8000152:	e7db      	b.n	800010c <main+0x24>
 8000154:	20002430 	andcs	r2, r0, r0, lsr r4
 8000158:	20000000 	andcs	r0, r0, r0
 800015c:	20000304 	andcs	r0, r0, r4, lsl #6

08000160 <initGPIO>:
 8000160:	b490      	push	{r4, r7}
 8000162:	b082      	sub	sp, #8
 8000164:	af00      	add	r7, sp, #0
 8000166:	4604      	mov	r4, r0
 8000168:	4608      	mov	r0, r1
 800016a:	4611      	mov	r1, r2
 800016c:	461a      	mov	r2, r3
 800016e:	4623      	mov	r3, r4
 8000170:	71fb      	strb	r3, [r7, #7]
 8000172:	4603      	mov	r3, r0
 8000174:	71bb      	strb	r3, [r7, #6]
 8000176:	460b      	mov	r3, r1
 8000178:	717b      	strb	r3, [r7, #5]
 800017a:	4613      	mov	r3, r2
 800017c:	713b      	strb	r3, [r7, #4]
 800017e:	4b6e      	ldr	r3, [pc, #440]	; (8000338 <initGPIO+0x1d8>)
 8000180:	699b      	ldr	r3, [r3, #24]
 8000182:	79fa      	ldrb	r2, [r7, #7]
 8000184:	3201      	adds	r2, #1
 8000186:	2101      	movs	r1, #1
 8000188:	fa01 f202 	lsl.w	r2, r1, r2
 800018c:	4611      	mov	r1, r2
 800018e:	4a6a      	ldr	r2, [pc, #424]	; (8000338 <initGPIO+0x1d8>)
 8000190:	430b      	orrs	r3, r1
 8000192:	6193      	str	r3, [r2, #24]
 8000194:	79bb      	ldrb	r3, [r7, #6]
 8000196:	2b07      	cmp	r3, #7
 8000198:	d863      	bhi.n	8000262 <initGPIO+0x102>
 800019a:	79fb      	ldrb	r3, [r7, #7]
 800019c:	2b01      	cmp	r3, #1
 800019e:	d11d      	bne.n	80001dc <initGPIO+0x7c>
 80001a0:	4b66      	ldr	r3, [pc, #408]	; (800033c <initGPIO+0x1dc>)
 80001a2:	681b      	ldr	r3, [r3, #0]
 80001a4:	79ba      	ldrb	r2, [r7, #6]
 80001a6:	0092      	lsls	r2, r2, #2
 80001a8:	210f      	movs	r1, #15
 80001aa:	fa01 f202 	lsl.w	r2, r1, r2
 80001ae:	43d2      	mvns	r2, r2
 80001b0:	4611      	mov	r1, r2
 80001b2:	4a62      	ldr	r2, [pc, #392]	; (800033c <initGPIO+0x1dc>)
 80001b4:	400b      	ands	r3, r1
 80001b6:	6013      	str	r3, [r2, #0]
 80001b8:	4b60      	ldr	r3, [pc, #384]	; (800033c <initGPIO+0x1dc>)
 80001ba:	681b      	ldr	r3, [r3, #0]
 80001bc:	7979      	ldrb	r1, [r7, #5]
 80001be:	79ba      	ldrb	r2, [r7, #6]
 80001c0:	0092      	lsls	r2, r2, #2
 80001c2:	4091      	lsls	r1, r2
 80001c4:	7938      	ldrb	r0, [r7, #4]
 80001c6:	79ba      	ldrb	r2, [r7, #6]
 80001c8:	0092      	lsls	r2, r2, #2
 80001ca:	3202      	adds	r2, #2
 80001cc:	fa00 f202 	lsl.w	r2, r0, r2
 80001d0:	430a      	orrs	r2, r1
 80001d2:	4611      	mov	r1, r2
 80001d4:	4a59      	ldr	r2, [pc, #356]	; (800033c <initGPIO+0x1dc>)
 80001d6:	430b      	orrs	r3, r1
 80001d8:	6013      	str	r3, [r2, #0]
 80001da:	e0a7      	b.n	800032c <initGPIO+0x1cc>
 80001dc:	79fb      	ldrb	r3, [r7, #7]
 80001de:	2b02      	cmp	r3, #2
 80001e0:	d11d      	bne.n	800021e <initGPIO+0xbe>
 80001e2:	4b57      	ldr	r3, [pc, #348]	; (8000340 <initGPIO+0x1e0>)
 80001e4:	681b      	ldr	r3, [r3, #0]
 80001e6:	79ba      	ldrb	r2, [r7, #6]
 80001e8:	0092      	lsls	r2, r2, #2
 80001ea:	210f      	movs	r1, #15
 80001ec:	fa01 f202 	lsl.w	r2, r1, r2
 80001f0:	43d2      	mvns	r2, r2
 80001f2:	4611      	mov	r1, r2
 80001f4:	4a52      	ldr	r2, [pc, #328]	; (8000340 <initGPIO+0x1e0>)
 80001f6:	400b      	ands	r3, r1
 80001f8:	6013      	str	r3, [r2, #0]
 80001fa:	4b51      	ldr	r3, [pc, #324]	; (8000340 <initGPIO+0x1e0>)
 80001fc:	681b      	ldr	r3, [r3, #0]
 80001fe:	7979      	ldrb	r1, [r7, #5]
 8000200:	79ba      	ldrb	r2, [r7, #6]
 8000202:	0092      	lsls	r2, r2, #2
 8000204:	4091      	lsls	r1, r2
 8000206:	7938      	ldrb	r0, [r7, #4]
 8000208:	79ba      	ldrb	r2, [r7, #6]
 800020a:	0092      	lsls	r2, r2, #2
 800020c:	3202      	adds	r2, #2
 800020e:	fa00 f202 	lsl.w	r2, r0, r2
 8000212:	430a      	orrs	r2, r1
 8000214:	4611      	mov	r1, r2
 8000216:	4a4a      	ldr	r2, [pc, #296]	; (8000340 <initGPIO+0x1e0>)
 8000218:	430b      	orrs	r3, r1
 800021a:	6013      	str	r3, [r2, #0]
 800021c:	e086      	b.n	800032c <initGPIO+0x1cc>
 800021e:	79fb      	ldrb	r3, [r7, #7]
 8000220:	2b03      	cmp	r3, #3
 8000222:	f040 8083 	bne.w	800032c <initGPIO+0x1cc>
 8000226:	4b47      	ldr	r3, [pc, #284]	; (8000344 <initGPIO+0x1e4>)
 8000228:	681b      	ldr	r3, [r3, #0]
 800022a:	79ba      	ldrb	r2, [r7, #6]
 800022c:	0092      	lsls	r2, r2, #2
 800022e:	210f      	movs	r1, #15
 8000230:	fa01 f202 	lsl.w	r2, r1, r2
 8000234:	43d2      	mvns	r2, r2
 8000236:	4611      	mov	r1, r2
 8000238:	4a42      	ldr	r2, [pc, #264]	; (8000344 <initGPIO+0x1e4>)
 800023a:	400b      	ands	r3, r1
 800023c:	6013      	str	r3, [r2, #0]
 800023e:	4b41      	ldr	r3, [pc, #260]	; (8000344 <initGPIO+0x1e4>)
 8000240:	681b      	ldr	r3, [r3, #0]
 8000242:	7979      	ldrb	r1, [r7, #5]
 8000244:	79ba      	ldrb	r2, [r7, #6]
 8000246:	0092      	lsls	r2, r2, #2
 8000248:	4091      	lsls	r1, r2
 800024a:	7938      	ldrb	r0, [r7, #4]
 800024c:	79ba      	ldrb	r2, [r7, #6]
 800024e:	0092      	lsls	r2, r2, #2
 8000250:	3202      	adds	r2, #2
 8000252:	fa00 f202 	lsl.w	r2, r0, r2
 8000256:	430a      	orrs	r2, r1
 8000258:	4611      	mov	r1, r2
 800025a:	4a3a      	ldr	r2, [pc, #232]	; (8000344 <initGPIO+0x1e4>)
 800025c:	430b      	orrs	r3, r1
 800025e:	6013      	str	r3, [r2, #0]
 8000260:	e064      	b.n	800032c <initGPIO+0x1cc>
 8000262:	79bb      	ldrb	r3, [r7, #6]
 8000264:	3b08      	subs	r3, #8
 8000266:	71bb      	strb	r3, [r7, #6]
 8000268:	79fb      	ldrb	r3, [r7, #7]
 800026a:	2b01      	cmp	r3, #1
 800026c:	d11d      	bne.n	80002aa <initGPIO+0x14a>
 800026e:	4b33      	ldr	r3, [pc, #204]	; (800033c <initGPIO+0x1dc>)
 8000270:	685b      	ldr	r3, [r3, #4]
 8000272:	79ba      	ldrb	r2, [r7, #6]
 8000274:	0092      	lsls	r2, r2, #2
 8000276:	210f      	movs	r1, #15
 8000278:	fa01 f202 	lsl.w	r2, r1, r2
 800027c:	43d2      	mvns	r2, r2
 800027e:	4611      	mov	r1, r2
 8000280:	4a2e      	ldr	r2, [pc, #184]	; (800033c <initGPIO+0x1dc>)
 8000282:	400b      	ands	r3, r1
 8000284:	6053      	str	r3, [r2, #4]
 8000286:	4b2d      	ldr	r3, [pc, #180]	; (800033c <initGPIO+0x1dc>)
 8000288:	685b      	ldr	r3, [r3, #4]
 800028a:	7979      	ldrb	r1, [r7, #5]
 800028c:	79ba      	ldrb	r2, [r7, #6]
 800028e:	0092      	lsls	r2, r2, #2
 8000290:	4091      	lsls	r1, r2
 8000292:	7938      	ldrb	r0, [r7, #4]
 8000294:	79ba      	ldrb	r2, [r7, #6]
 8000296:	0092      	lsls	r2, r2, #2
 8000298:	3202      	adds	r2, #2
 800029a:	fa00 f202 	lsl.w	r2, r0, r2
 800029e:	430a      	orrs	r2, r1
 80002a0:	4611      	mov	r1, r2
 80002a2:	4a26      	ldr	r2, [pc, #152]	; (800033c <initGPIO+0x1dc>)
 80002a4:	430b      	orrs	r3, r1
 80002a6:	6053      	str	r3, [r2, #4]
 80002a8:	e040      	b.n	800032c <initGPIO+0x1cc>
 80002aa:	79fb      	ldrb	r3, [r7, #7]
 80002ac:	2b02      	cmp	r3, #2
 80002ae:	d11d      	bne.n	80002ec <initGPIO+0x18c>
 80002b0:	4b23      	ldr	r3, [pc, #140]	; (8000340 <initGPIO+0x1e0>)
 80002b2:	685b      	ldr	r3, [r3, #4]
 80002b4:	79ba      	ldrb	r2, [r7, #6]
 80002b6:	0092      	lsls	r2, r2, #2
 80002b8:	210f      	movs	r1, #15
 80002ba:	fa01 f202 	lsl.w	r2, r1, r2
 80002be:	43d2      	mvns	r2, r2
 80002c0:	4611      	mov	r1, r2
 80002c2:	4a1f      	ldr	r2, [pc, #124]	; (8000340 <initGPIO+0x1e0>)
 80002c4:	400b      	ands	r3, r1
 80002c6:	6053      	str	r3, [r2, #4]
 80002c8:	4b1d      	ldr	r3, [pc, #116]	; (8000340 <initGPIO+0x1e0>)
 80002ca:	685b      	ldr	r3, [r3, #4]
 80002cc:	7979      	ldrb	r1, [r7, #5]
 80002ce:	79ba      	ldrb	r2, [r7, #6]
 80002d0:	0092      	lsls	r2, r2, #2
 80002d2:	4091      	lsls	r1, r2
 80002d4:	7938      	ldrb	r0, [r7, #4]
 80002d6:	79ba      	ldrb	r2, [r7, #6]
 80002d8:	0092      	lsls	r2, r2, #2
 80002da:	3202      	adds	r2, #2
 80002dc:	fa00 f202 	lsl.w	r2, r0, r2
 80002e0:	430a      	orrs	r2, r1
 80002e2:	4611      	mov	r1, r2
 80002e4:	4a16      	ldr	r2, [pc, #88]	; (8000340 <initGPIO+0x1e0>)
 80002e6:	430b      	orrs	r3, r1
 80002e8:	6053      	str	r3, [r2, #4]
 80002ea:	e01f      	b.n	800032c <initGPIO+0x1cc>
 80002ec:	79fb      	ldrb	r3, [r7, #7]
 80002ee:	2b03      	cmp	r3, #3
 80002f0:	d11c      	bne.n	800032c <initGPIO+0x1cc>
 80002f2:	4b14      	ldr	r3, [pc, #80]	; (8000344 <initGPIO+0x1e4>)
 80002f4:	685b      	ldr	r3, [r3, #4]
 80002f6:	79ba      	ldrb	r2, [r7, #6]
 80002f8:	0092      	lsls	r2, r2, #2
 80002fa:	210f      	movs	r1, #15
 80002fc:	fa01 f202 	lsl.w	r2, r1, r2
 8000300:	43d2      	mvns	r2, r2
 8000302:	4611      	mov	r1, r2
 8000304:	4a0f      	ldr	r2, [pc, #60]	; (8000344 <initGPIO+0x1e4>)
 8000306:	400b      	ands	r3, r1
 8000308:	6053      	str	r3, [r2, #4]
 800030a:	4b0e      	ldr	r3, [pc, #56]	; (8000344 <initGPIO+0x1e4>)
 800030c:	685b      	ldr	r3, [r3, #4]
 800030e:	7979      	ldrb	r1, [r7, #5]
 8000310:	79ba      	ldrb	r2, [r7, #6]
 8000312:	0092      	lsls	r2, r2, #2
 8000314:	4091      	lsls	r1, r2
 8000316:	7938      	ldrb	r0, [r7, #4]
 8000318:	79ba      	ldrb	r2, [r7, #6]
 800031a:	0092      	lsls	r2, r2, #2
 800031c:	3202      	adds	r2, #2
 800031e:	fa00 f202 	lsl.w	r2, r0, r2
 8000322:	430a      	orrs	r2, r1
 8000324:	4611      	mov	r1, r2
 8000326:	4a07      	ldr	r2, [pc, #28]	; (8000344 <initGPIO+0x1e4>)
 8000328:	430b      	orrs	r3, r1
 800032a:	6053      	str	r3, [r2, #4]
 800032c:	bf00      	nop
 800032e:	3708      	adds	r7, #8
 8000330:	46bd      	mov	sp, r7
 8000332:	bc90      	pop	{r4, r7}
 8000334:	4770      	bx	lr
 8000336:	bf00      	nop
 8000338:	40021000 	andmi	r1, r2, r0
 800033c:	40010800 	andmi	r0, r1, r0, lsl #16
 8000340:	40010c00 	andmi	r0, r1, r0, lsl #24
 8000344:	40011000 	andmi	r1, r1, r0

08000348 <writeGPIO>:
 8000348:	b480      	push	{r7}
 800034a:	b083      	sub	sp, #12
 800034c:	af00      	add	r7, sp, #0
 800034e:	4603      	mov	r3, r0
 8000350:	71fb      	strb	r3, [r7, #7]
 8000352:	460b      	mov	r3, r1
 8000354:	71bb      	strb	r3, [r7, #6]
 8000356:	4613      	mov	r3, r2
 8000358:	717b      	strb	r3, [r7, #5]
 800035a:	79fb      	ldrb	r3, [r7, #7]
 800035c:	2b01      	cmp	r3, #1
 800035e:	d119      	bne.n	8000394 <writeGPIO+0x4c>
 8000360:	797b      	ldrb	r3, [r7, #5]
 8000362:	2b00      	cmp	r3, #0
 8000364:	d00a      	beq.n	800037c <writeGPIO+0x34>
 8000366:	4b2a      	ldr	r3, [pc, #168]	; (8000410 <writeGPIO+0xc8>)
 8000368:	68db      	ldr	r3, [r3, #12]
 800036a:	7979      	ldrb	r1, [r7, #5]
 800036c:	79ba      	ldrb	r2, [r7, #6]
 800036e:	fa01 f202 	lsl.w	r2, r1, r2
 8000372:	4611      	mov	r1, r2
 8000374:	4a26      	ldr	r2, [pc, #152]	; (8000410 <writeGPIO+0xc8>)
 8000376:	430b      	orrs	r3, r1
 8000378:	60d3      	str	r3, [r2, #12]
 800037a:	e044      	b.n	8000406 <writeGPIO+0xbe>
 800037c:	4b24      	ldr	r3, [pc, #144]	; (8000410 <writeGPIO+0xc8>)
 800037e:	68db      	ldr	r3, [r3, #12]
 8000380:	79ba      	ldrb	r2, [r7, #6]
 8000382:	2101      	movs	r1, #1
 8000384:	fa01 f202 	lsl.w	r2, r1, r2
 8000388:	43d2      	mvns	r2, r2
 800038a:	4611      	mov	r1, r2
 800038c:	4a20      	ldr	r2, [pc, #128]	; (8000410 <writeGPIO+0xc8>)
 800038e:	400b      	ands	r3, r1
 8000390:	60d3      	str	r3, [r2, #12]
 8000392:	e038      	b.n	8000406 <writeGPIO+0xbe>
 8000394:	79fb      	ldrb	r3, [r7, #7]
 8000396:	2b02      	cmp	r3, #2
 8000398:	d119      	bne.n	80003ce <writeGPIO+0x86>
 800039a:	797b      	ldrb	r3, [r7, #5]
 800039c:	2b00      	cmp	r3, #0
 800039e:	d00a      	beq.n	80003b6 <writeGPIO+0x6e>
 80003a0:	4b1c      	ldr	r3, [pc, #112]	; (8000414 <writeGPIO+0xcc>)
 80003a2:	68db      	ldr	r3, [r3, #12]
 80003a4:	7979      	ldrb	r1, [r7, #5]
 80003a6:	79ba      	ldrb	r2, [r7, #6]
 80003a8:	fa01 f202 	lsl.w	r2, r1, r2
 80003ac:	4611      	mov	r1, r2
 80003ae:	4a19      	ldr	r2, [pc, #100]	; (8000414 <writeGPIO+0xcc>)
 80003b0:	430b      	orrs	r3, r1
 80003b2:	60d3      	str	r3, [r2, #12]
 80003b4:	e027      	b.n	8000406 <writeGPIO+0xbe>
 80003b6:	4b17      	ldr	r3, [pc, #92]	; (8000414 <writeGPIO+0xcc>)
 80003b8:	68db      	ldr	r3, [r3, #12]
 80003ba:	79ba      	ldrb	r2, [r7, #6]
 80003bc:	2101      	movs	r1, #1
 80003be:	fa01 f202 	lsl.w	r2, r1, r2
 80003c2:	43d2      	mvns	r2, r2
 80003c4:	4611      	mov	r1, r2
 80003c6:	4a13      	ldr	r2, [pc, #76]	; (8000414 <writeGPIO+0xcc>)
 80003c8:	400b      	ands	r3, r1
 80003ca:	60d3      	str	r3, [r2, #12]
 80003cc:	e01b      	b.n	8000406 <writeGPIO+0xbe>
 80003ce:	79fb      	ldrb	r3, [r7, #7]
 80003d0:	2b03      	cmp	r3, #3
 80003d2:	d118      	bne.n	8000406 <writeGPIO+0xbe>
 80003d4:	797b      	ldrb	r3, [r7, #5]
 80003d6:	2b00      	cmp	r3, #0
 80003d8:	d00a      	beq.n	80003f0 <writeGPIO+0xa8>
 80003da:	4b0f      	ldr	r3, [pc, #60]	; (8000418 <writeGPIO+0xd0>)
 80003dc:	68db      	ldr	r3, [r3, #12]
 80003de:	7979      	ldrb	r1, [r7, #5]
 80003e0:	79ba      	ldrb	r2, [r7, #6]
 80003e2:	fa01 f202 	lsl.w	r2, r1, r2
 80003e6:	4611      	mov	r1, r2
 80003e8:	4a0b      	ldr	r2, [pc, #44]	; (8000418 <writeGPIO+0xd0>)
 80003ea:	430b      	orrs	r3, r1
 80003ec:	60d3      	str	r3, [r2, #12]
 80003ee:	e00a      	b.n	8000406 <writeGPIO+0xbe>
 80003f0:	4b09      	ldr	r3, [pc, #36]	; (8000418 <writeGPIO+0xd0>)
 80003f2:	68db      	ldr	r3, [r3, #12]
 80003f4:	79ba      	ldrb	r2, [r7, #6]
 80003f6:	2101      	movs	r1, #1
 80003f8:	fa01 f202 	lsl.w	r2, r1, r2
 80003fc:	43d2      	mvns	r2, r2
 80003fe:	4611      	mov	r1, r2
 8000400:	4a05      	ldr	r2, [pc, #20]	; (8000418 <writeGPIO+0xd0>)
 8000402:	400b      	ands	r3, r1
 8000404:	60d3      	str	r3, [r2, #12]
 8000406:	bf00      	nop
 8000408:	370c      	adds	r7, #12
 800040a:	46bd      	mov	sp, r7
 800040c:	bc80      	pop	{r7}
 800040e:	4770      	bx	lr
 8000410:	40010800 	andmi	r0, r1, r0, lsl #16
 8000414:	40010c00 	andmi	r0, r1, r0, lsl #24
 8000418:	40011000 	andmi	r1, r1, r0

0800041c <readGPIO>:
 800041c:	b480      	push	{r7}
 800041e:	b083      	sub	sp, #12
 8000420:	af00      	add	r7, sp, #0
 8000422:	4603      	mov	r3, r0
 8000424:	460a      	mov	r2, r1
 8000426:	71fb      	strb	r3, [r7, #7]
 8000428:	4613      	mov	r3, r2
 800042a:	71bb      	strb	r3, [r7, #6]
 800042c:	79fb      	ldrb	r3, [r7, #7]
 800042e:	2b01      	cmp	r3, #1
 8000430:	d10a      	bne.n	8000448 <readGPIO+0x2c>
 8000432:	4b16      	ldr	r3, [pc, #88]	; (800048c <readGPIO+0x70>)
 8000434:	689b      	ldr	r3, [r3, #8]
 8000436:	79ba      	ldrb	r2, [r7, #6]
 8000438:	2101      	movs	r1, #1
 800043a:	fa01 f202 	lsl.w	r2, r1, r2
 800043e:	401a      	ands	r2, r3
 8000440:	79bb      	ldrb	r3, [r7, #6]
 8000442:	fa22 f303 	lsr.w	r3, r2, r3
 8000446:	e01b      	b.n	8000480 <readGPIO+0x64>
 8000448:	79fb      	ldrb	r3, [r7, #7]
 800044a:	2b02      	cmp	r3, #2
 800044c:	d10a      	bne.n	8000464 <readGPIO+0x48>
 800044e:	4b10      	ldr	r3, [pc, #64]	; (8000490 <readGPIO+0x74>)
 8000450:	689b      	ldr	r3, [r3, #8]
 8000452:	79ba      	ldrb	r2, [r7, #6]
 8000454:	2101      	movs	r1, #1
 8000456:	fa01 f202 	lsl.w	r2, r1, r2
 800045a:	401a      	ands	r2, r3
 800045c:	79bb      	ldrb	r3, [r7, #6]
 800045e:	fa22 f303 	lsr.w	r3, r2, r3
 8000462:	e00d      	b.n	8000480 <readGPIO+0x64>
 8000464:	79fb      	ldrb	r3, [r7, #7]
 8000466:	2b03      	cmp	r3, #3
 8000468:	d10a      	bne.n	8000480 <readGPIO+0x64>
 800046a:	4b0a      	ldr	r3, [pc, #40]	; (8000494 <readGPIO+0x78>)
 800046c:	689b      	ldr	r3, [r3, #8]
 800046e:	79ba      	ldrb	r2, [r7, #6]
 8000470:	2101      	movs	r1, #1
 8000472:	fa01 f202 	lsl.w	r2, r1, r2
 8000476:	401a      	ands	r2, r3
 8000478:	79bb      	ldrb	r3, [r7, #6]
 800047a:	fa22 f303 	lsr.w	r3, r2, r3
 800047e:	e7ff      	b.n	8000480 <readGPIO+0x64>
 8000480:	4618      	mov	r0, r3
 8000482:	370c      	adds	r7, #12
 8000484:	46bd      	mov	sp, r7
 8000486:	bc80      	pop	{r7}
 8000488:	4770      	bx	lr
 800048a:	bf00      	nop
 800048c:	40010800 	andmi	r0, r1, r0, lsl #16
 8000490:	40010c00 	andmi	r0, r1, r0, lsl #24
 8000494:	40011000 	andmi	r1, r1, r0

08000498 <toggleGPIO>:
 8000498:	b580      	push	{r7, lr}
 800049a:	b082      	sub	sp, #8
 800049c:	af00      	add	r7, sp, #0
 800049e:	4603      	mov	r3, r0
 80004a0:	460a      	mov	r2, r1
 80004a2:	71fb      	strb	r3, [r7, #7]
 80004a4:	4613      	mov	r3, r2
 80004a6:	71bb      	strb	r3, [r7, #6]
 80004a8:	79ba      	ldrb	r2, [r7, #6]
 80004aa:	79fb      	ldrb	r3, [r7, #7]
 80004ac:	4611      	mov	r1, r2
 80004ae:	4618      	mov	r0, r3
 80004b0:	f7ff ffb4 	bl	800041c <readGPIO>
 80004b4:	4603      	mov	r3, r0
 80004b6:	2b00      	cmp	r3, #0
 80004b8:	d006      	beq.n	80004c8 <toggleGPIO+0x30>
 80004ba:	79b9      	ldrb	r1, [r7, #6]
 80004bc:	79fb      	ldrb	r3, [r7, #7]
 80004be:	2200      	movs	r2, #0
 80004c0:	4618      	mov	r0, r3
 80004c2:	f7ff ff41 	bl	8000348 <writeGPIO>
 80004c6:	e005      	b.n	80004d4 <toggleGPIO+0x3c>
 80004c8:	79b9      	ldrb	r1, [r7, #6]
 80004ca:	79fb      	ldrb	r3, [r7, #7]
 80004cc:	2201      	movs	r2, #1
 80004ce:	4618      	mov	r0, r3
 80004d0:	f7ff ff3a 	bl	8000348 <writeGPIO>
 80004d4:	bf00      	nop
 80004d6:	3708      	adds	r7, #8
 80004d8:	46bd      	mov	sp, r7
 80004da:	bd80      	pop	{r7, pc}

080004dc <i2c_init>:
 80004dc:	b580      	push	{r7, lr}
 80004de:	b082      	sub	sp, #8
 80004e0:	af00      	add	r7, sp, #0
 80004e2:	4603      	mov	r3, r0
 80004e4:	460a      	mov	r2, r1
 80004e6:	71fb      	strb	r3, [r7, #7]
 80004e8:	4613      	mov	r3, r2
 80004ea:	80bb      	strh	r3, [r7, #4]
 80004ec:	4b33      	ldr	r3, [pc, #204]	; (80005bc <i2c_init+0xe0>)
 80004ee:	699b      	ldr	r3, [r3, #24]
 80004f0:	4a32      	ldr	r2, [pc, #200]	; (80005bc <i2c_init+0xe0>)
 80004f2:	f043 0301 	orr.w	r3, r3, #1
 80004f6:	6193      	str	r3, [r2, #24]
 80004f8:	79fb      	ldrb	r3, [r7, #7]
 80004fa:	2b01      	cmp	r3, #1
 80004fc:	d12d      	bne.n	800055a <i2c_init+0x7e>
 80004fe:	4b2f      	ldr	r3, [pc, #188]	; (80005bc <i2c_init+0xe0>)
 8000500:	69db      	ldr	r3, [r3, #28]
 8000502:	4a2e      	ldr	r2, [pc, #184]	; (80005bc <i2c_init+0xe0>)
 8000504:	f443 1300 	orr.w	r3, r3, #2097152	; 0x200000
 8000508:	61d3      	str	r3, [r2, #28]
 800050a:	2303      	movs	r3, #3
 800050c:	2203      	movs	r2, #3
 800050e:	2106      	movs	r1, #6
 8000510:	2002      	movs	r0, #2
 8000512:	f7ff fe25 	bl	8000160 <initGPIO>
 8000516:	2303      	movs	r3, #3
 8000518:	2203      	movs	r2, #3
 800051a:	2107      	movs	r1, #7
 800051c:	2002      	movs	r0, #2
 800051e:	f7ff fe1f 	bl	8000160 <initGPIO>
 8000522:	4b27      	ldr	r3, [pc, #156]	; (80005c0 <i2c_init+0xe4>)
 8000524:	681b      	ldr	r3, [r3, #0]
 8000526:	4a26      	ldr	r2, [pc, #152]	; (80005c0 <i2c_init+0xe4>)
 8000528:	f443 4300 	orr.w	r3, r3, #32768	; 0x8000
 800052c:	6013      	str	r3, [r2, #0]
 800052e:	4b24      	ldr	r3, [pc, #144]	; (80005c0 <i2c_init+0xe4>)
 8000530:	681b      	ldr	r3, [r3, #0]
 8000532:	4a23      	ldr	r2, [pc, #140]	; (80005c0 <i2c_init+0xe4>)
 8000534:	f423 4300 	bic.w	r3, r3, #32768	; 0x8000
 8000538:	6013      	str	r3, [r2, #0]
 800053a:	4b21      	ldr	r3, [pc, #132]	; (80005c0 <i2c_init+0xe4>)
 800053c:	2208      	movs	r2, #8
 800053e:	605a      	str	r2, [r3, #4]
 8000540:	4a1f      	ldr	r2, [pc, #124]	; (80005c0 <i2c_init+0xe4>)
 8000542:	88bb      	ldrh	r3, [r7, #4]
 8000544:	61d3      	str	r3, [r2, #28]
 8000546:	4b1e      	ldr	r3, [pc, #120]	; (80005c0 <i2c_init+0xe4>)
 8000548:	2209      	movs	r2, #9
 800054a:	621a      	str	r2, [r3, #32]
 800054c:	4b1c      	ldr	r3, [pc, #112]	; (80005c0 <i2c_init+0xe4>)
 800054e:	681b      	ldr	r3, [r3, #0]
 8000550:	4a1b      	ldr	r2, [pc, #108]	; (80005c0 <i2c_init+0xe4>)
 8000552:	f043 0301 	orr.w	r3, r3, #1
 8000556:	6013      	str	r3, [r2, #0]
 8000558:	e02c      	b.n	80005b4 <i2c_init+0xd8>
 800055a:	4b18      	ldr	r3, [pc, #96]	; (80005bc <i2c_init+0xe0>)
 800055c:	69db      	ldr	r3, [r3, #28]
 800055e:	4a17      	ldr	r2, [pc, #92]	; (80005bc <i2c_init+0xe0>)
 8000560:	f443 0380 	orr.w	r3, r3, #4194304	; 0x400000
 8000564:	61d3      	str	r3, [r2, #28]
 8000566:	2303      	movs	r3, #3
 8000568:	2203      	movs	r2, #3
 800056a:	210a      	movs	r1, #10
 800056c:	2002      	movs	r0, #2
 800056e:	f7ff fdf7 	bl	8000160 <initGPIO>
 8000572:	2303      	movs	r3, #3
 8000574:	2203      	movs	r2, #3
 8000576:	210b      	movs	r1, #11
 8000578:	2002      	movs	r0, #2
 800057a:	f7ff fdf1 	bl	8000160 <initGPIO>
 800057e:	4b11      	ldr	r3, [pc, #68]	; (80005c4 <i2c_init+0xe8>)
 8000580:	681b      	ldr	r3, [r3, #0]
 8000582:	4a10      	ldr	r2, [pc, #64]	; (80005c4 <i2c_init+0xe8>)
 8000584:	f443 4300 	orr.w	r3, r3, #32768	; 0x8000
 8000588:	6013      	str	r3, [r2, #0]
 800058a:	4b0e      	ldr	r3, [pc, #56]	; (80005c4 <i2c_init+0xe8>)
 800058c:	681b      	ldr	r3, [r3, #0]
 800058e:	4a0d      	ldr	r2, [pc, #52]	; (80005c4 <i2c_init+0xe8>)
 8000590:	f423 4300 	bic.w	r3, r3, #32768	; 0x8000
 8000594:	6013      	str	r3, [r2, #0]
 8000596:	4b0b      	ldr	r3, [pc, #44]	; (80005c4 <i2c_init+0xe8>)
 8000598:	2208      	movs	r2, #8
 800059a:	605a      	str	r2, [r3, #4]
 800059c:	4a09      	ldr	r2, [pc, #36]	; (80005c4 <i2c_init+0xe8>)
 800059e:	88bb      	ldrh	r3, [r7, #4]
 80005a0:	61d3      	str	r3, [r2, #28]
 80005a2:	4b08      	ldr	r3, [pc, #32]	; (80005c4 <i2c_init+0xe8>)
 80005a4:	2209      	movs	r2, #9
 80005a6:	621a      	str	r2, [r3, #32]
 80005a8:	4b06      	ldr	r3, [pc, #24]	; (80005c4 <i2c_init+0xe8>)
 80005aa:	681b      	ldr	r3, [r3, #0]
 80005ac:	4a05      	ldr	r2, [pc, #20]	; (80005c4 <i2c_init+0xe8>)
 80005ae:	f043 0301 	orr.w	r3, r3, #1
 80005b2:	6013      	str	r3, [r2, #0]
 80005b4:	bf00      	nop
 80005b6:	3708      	adds	r7, #8
 80005b8:	46bd      	mov	sp, r7
 80005ba:	bd80      	pop	{r7, pc}
 80005bc:	40021000 	andmi	r1, r2, r0
 80005c0:	40005400 	andmi	r5, r0, r0, lsl #8
 80005c4:	40005800 	andmi	r5, r0, r0, lsl #16

080005c8 <i2c_add>:
 80005c8:	b480      	push	{r7}
 80005ca:	b085      	sub	sp, #20
 80005cc:	af00      	add	r7, sp, #0
 80005ce:	4603      	mov	r3, r0
 80005d0:	71fb      	strb	r3, [r7, #7]
 80005d2:	460b      	mov	r3, r1
 80005d4:	71bb      	strb	r3, [r7, #6]
 80005d6:	4613      	mov	r3, r2
 80005d8:	717b      	strb	r3, [r7, #5]
 80005da:	79fb      	ldrb	r3, [r7, #7]
 80005dc:	2b01      	cmp	r3, #1
 80005de:	d11e      	bne.n	800061e <i2c_add+0x56>
 80005e0:	79ba      	ldrb	r2, [r7, #6]
 80005e2:	797b      	ldrb	r3, [r7, #5]
 80005e4:	4313      	orrs	r3, r2
 80005e6:	b2da      	uxtb	r2, r3
 80005e8:	4b22      	ldr	r3, [pc, #136]	; (8000674 <i2c_add+0xac>)
 80005ea:	611a      	str	r2, [r3, #16]
 80005ec:	bf00      	nop
 80005ee:	4b21      	ldr	r3, [pc, #132]	; (8000674 <i2c_add+0xac>)
 80005f0:	695b      	ldr	r3, [r3, #20]
 80005f2:	f003 0302 	and.w	r3, r3, #2
 80005f6:	2b00      	cmp	r3, #0
 80005f8:	d0f9      	beq.n	80005ee <i2c_add+0x26>
 80005fa:	e009      	b.n	8000610 <i2c_add+0x48>
 80005fc:	4b1d      	ldr	r3, [pc, #116]	; (8000674 <i2c_add+0xac>)
 80005fe:	695b      	ldr	r3, [r3, #20]
 8000600:	60fb      	str	r3, [r7, #12]
 8000602:	4b1c      	ldr	r3, [pc, #112]	; (8000674 <i2c_add+0xac>)
 8000604:	699b      	ldr	r3, [r3, #24]
 8000606:	60fb      	str	r3, [r7, #12]
 8000608:	4b1a      	ldr	r3, [pc, #104]	; (8000674 <i2c_add+0xac>)
 800060a:	695b      	ldr	r3, [r3, #20]
 800060c:	2b00      	cmp	r3, #0
 800060e:	d028      	beq.n	8000662 <i2c_add+0x9a>
 8000610:	4b18      	ldr	r3, [pc, #96]	; (8000674 <i2c_add+0xac>)
 8000612:	695b      	ldr	r3, [r3, #20]
 8000614:	f003 0302 	and.w	r3, r3, #2
 8000618:	2b00      	cmp	r3, #0
 800061a:	d1ef      	bne.n	80005fc <i2c_add+0x34>
 800061c:	e024      	b.n	8000668 <i2c_add+0xa0>
 800061e:	79fb      	ldrb	r3, [r7, #7]
 8000620:	2b02      	cmp	r3, #2
 8000622:	d121      	bne.n	8000668 <i2c_add+0xa0>
 8000624:	79ba      	ldrb	r2, [r7, #6]
 8000626:	797b      	ldrb	r3, [r7, #5]
 8000628:	4313      	orrs	r3, r2
 800062a:	b2da      	uxtb	r2, r3
 800062c:	4b12      	ldr	r3, [pc, #72]	; (8000678 <i2c_add+0xb0>)
 800062e:	611a      	str	r2, [r3, #16]
 8000630:	bf00      	nop
 8000632:	4b11      	ldr	r3, [pc, #68]	; (8000678 <i2c_add+0xb0>)
 8000634:	695b      	ldr	r3, [r3, #20]
 8000636:	f003 0302 	and.w	r3, r3, #2
 800063a:	2b00      	cmp	r3, #0
 800063c:	d0f9      	beq.n	8000632 <i2c_add+0x6a>
 800063e:	e009      	b.n	8000654 <i2c_add+0x8c>
 8000640:	4b0d      	ldr	r3, [pc, #52]	; (8000678 <i2c_add+0xb0>)
 8000642:	695b      	ldr	r3, [r3, #20]
 8000644:	60fb      	str	r3, [r7, #12]
 8000646:	4b0c      	ldr	r3, [pc, #48]	; (8000678 <i2c_add+0xb0>)
 8000648:	699b      	ldr	r3, [r3, #24]
 800064a:	60fb      	str	r3, [r7, #12]
 800064c:	4b0a      	ldr	r3, [pc, #40]	; (8000678 <i2c_add+0xb0>)
 800064e:	695b      	ldr	r3, [r3, #20]
 8000650:	2b00      	cmp	r3, #0
 8000652:	d008      	beq.n	8000666 <i2c_add+0x9e>
 8000654:	4b08      	ldr	r3, [pc, #32]	; (8000678 <i2c_add+0xb0>)
 8000656:	695b      	ldr	r3, [r3, #20]
 8000658:	f003 0302 	and.w	r3, r3, #2
 800065c:	2b00      	cmp	r3, #0
 800065e:	d1ef      	bne.n	8000640 <i2c_add+0x78>
 8000660:	e002      	b.n	8000668 <i2c_add+0xa0>
 8000662:	bf00      	nop
 8000664:	e000      	b.n	8000668 <i2c_add+0xa0>
 8000666:	bf00      	nop
 8000668:	bf00      	nop
 800066a:	3714      	adds	r7, #20
 800066c:	46bd      	mov	sp, r7
 800066e:	bc80      	pop	{r7}
 8000670:	4770      	bx	lr
 8000672:	bf00      	nop
 8000674:	40005400 	andmi	r5, r0, r0, lsl #8
 8000678:	40005800 	andmi	r5, r0, r0, lsl #16

0800067c <i2c_start>:
 800067c:	b480      	push	{r7}
 800067e:	b083      	sub	sp, #12
 8000680:	af00      	add	r7, sp, #0
 8000682:	4603      	mov	r3, r0
 8000684:	71fb      	strb	r3, [r7, #7]
 8000686:	79fb      	ldrb	r3, [r7, #7]
 8000688:	2b01      	cmp	r3, #1
 800068a:	d10d      	bne.n	80006a8 <i2c_start+0x2c>
 800068c:	4b11      	ldr	r3, [pc, #68]	; (80006d4 <i2c_start+0x58>)
 800068e:	681b      	ldr	r3, [r3, #0]
 8000690:	4a10      	ldr	r2, [pc, #64]	; (80006d4 <i2c_start+0x58>)
 8000692:	f443 7380 	orr.w	r3, r3, #256	; 0x100
 8000696:	6013      	str	r3, [r2, #0]
 8000698:	bf00      	nop
 800069a:	4b0e      	ldr	r3, [pc, #56]	; (80006d4 <i2c_start+0x58>)
 800069c:	695b      	ldr	r3, [r3, #20]
 800069e:	f003 0301 	and.w	r3, r3, #1
 80006a2:	2b00      	cmp	r3, #0
 80006a4:	d0f9      	beq.n	800069a <i2c_start+0x1e>
 80006a6:	e00f      	b.n	80006c8 <i2c_start+0x4c>
 80006a8:	79fb      	ldrb	r3, [r7, #7]
 80006aa:	2b02      	cmp	r3, #2
 80006ac:	d10c      	bne.n	80006c8 <i2c_start+0x4c>
 80006ae:	4b0a      	ldr	r3, [pc, #40]	; (80006d8 <i2c_start+0x5c>)
 80006b0:	681b      	ldr	r3, [r3, #0]
 80006b2:	4a09      	ldr	r2, [pc, #36]	; (80006d8 <i2c_start+0x5c>)
 80006b4:	f443 7380 	orr.w	r3, r3, #256	; 0x100
 80006b8:	6013      	str	r3, [r2, #0]
 80006ba:	bf00      	nop
 80006bc:	4b06      	ldr	r3, [pc, #24]	; (80006d8 <i2c_start+0x5c>)
 80006be:	695b      	ldr	r3, [r3, #20]
 80006c0:	f003 0301 	and.w	r3, r3, #1
 80006c4:	2b00      	cmp	r3, #0
 80006c6:	d0f9      	beq.n	80006bc <i2c_start+0x40>
 80006c8:	bf00      	nop
 80006ca:	370c      	adds	r7, #12
 80006cc:	46bd      	mov	sp, r7
 80006ce:	bc80      	pop	{r7}
 80006d0:	4770      	bx	lr
 80006d2:	bf00      	nop
 80006d4:	40005400 	andmi	r5, r0, r0, lsl #8
 80006d8:	40005800 	andmi	r5, r0, r0, lsl #16

080006dc <i2c_data>:
 80006dc:	b480      	push	{r7}
 80006de:	b083      	sub	sp, #12
 80006e0:	af00      	add	r7, sp, #0
 80006e2:	4603      	mov	r3, r0
 80006e4:	460a      	mov	r2, r1
 80006e6:	71fb      	strb	r3, [r7, #7]
 80006e8:	4613      	mov	r3, r2
 80006ea:	71bb      	strb	r3, [r7, #6]
 80006ec:	79fb      	ldrb	r3, [r7, #7]
 80006ee:	2b01      	cmp	r3, #1
 80006f0:	d111      	bne.n	8000716 <i2c_data+0x3a>
 80006f2:	bf00      	nop
 80006f4:	4b14      	ldr	r3, [pc, #80]	; (8000748 <i2c_data+0x6c>)
 80006f6:	695b      	ldr	r3, [r3, #20]
 80006f8:	f003 0380 	and.w	r3, r3, #128	; 0x80
 80006fc:	2b00      	cmp	r3, #0
 80006fe:	d0f9      	beq.n	80006f4 <i2c_data+0x18>
 8000700:	4a11      	ldr	r2, [pc, #68]	; (8000748 <i2c_data+0x6c>)
 8000702:	79bb      	ldrb	r3, [r7, #6]
 8000704:	6113      	str	r3, [r2, #16]
 8000706:	bf00      	nop
 8000708:	4b0f      	ldr	r3, [pc, #60]	; (8000748 <i2c_data+0x6c>)
 800070a:	695b      	ldr	r3, [r3, #20]
 800070c:	f003 0380 	and.w	r3, r3, #128	; 0x80
 8000710:	2b00      	cmp	r3, #0
 8000712:	d0f9      	beq.n	8000708 <i2c_data+0x2c>
 8000714:	e013      	b.n	800073e <i2c_data+0x62>
 8000716:	79fb      	ldrb	r3, [r7, #7]
 8000718:	2b02      	cmp	r3, #2
 800071a:	d110      	bne.n	800073e <i2c_data+0x62>
 800071c:	bf00      	nop
 800071e:	4b0b      	ldr	r3, [pc, #44]	; (800074c <i2c_data+0x70>)
 8000720:	695b      	ldr	r3, [r3, #20]
 8000722:	f003 0380 	and.w	r3, r3, #128	; 0x80
 8000726:	2b00      	cmp	r3, #0
 8000728:	d0f9      	beq.n	800071e <i2c_data+0x42>
 800072a:	4a08      	ldr	r2, [pc, #32]	; (800074c <i2c_data+0x70>)
 800072c:	79bb      	ldrb	r3, [r7, #6]
 800072e:	6113      	str	r3, [r2, #16]
 8000730:	bf00      	nop
 8000732:	4b06      	ldr	r3, [pc, #24]	; (800074c <i2c_data+0x70>)
 8000734:	695b      	ldr	r3, [r3, #20]
 8000736:	f003 0380 	and.w	r3, r3, #128	; 0x80
 800073a:	2b00      	cmp	r3, #0
 800073c:	d0f9      	beq.n	8000732 <i2c_data+0x56>
 800073e:	bf00      	nop
 8000740:	370c      	adds	r7, #12
 8000742:	46bd      	mov	sp, r7
 8000744:	bc80      	pop	{r7}
 8000746:	4770      	bx	lr
 8000748:	40005400 	andmi	r5, r0, r0, lsl #8
 800074c:	40005800 	andmi	r5, r0, r0, lsl #16

08000750 <i2c_stop>:
 8000750:	b480      	push	{r7}
 8000752:	b085      	sub	sp, #20
 8000754:	af00      	add	r7, sp, #0
 8000756:	4603      	mov	r3, r0
 8000758:	71fb      	strb	r3, [r7, #7]
 800075a:	79fb      	ldrb	r3, [r7, #7]
 800075c:	2b01      	cmp	r3, #1
 800075e:	d10c      	bne.n	800077a <i2c_stop+0x2a>
 8000760:	4b10      	ldr	r3, [pc, #64]	; (80007a4 <i2c_stop+0x54>)
 8000762:	695b      	ldr	r3, [r3, #20]
 8000764:	60fb      	str	r3, [r7, #12]
 8000766:	4b0f      	ldr	r3, [pc, #60]	; (80007a4 <i2c_stop+0x54>)
 8000768:	699b      	ldr	r3, [r3, #24]
 800076a:	60fb      	str	r3, [r7, #12]
 800076c:	4b0d      	ldr	r3, [pc, #52]	; (80007a4 <i2c_stop+0x54>)
 800076e:	681b      	ldr	r3, [r3, #0]
 8000770:	4a0c      	ldr	r2, [pc, #48]	; (80007a4 <i2c_stop+0x54>)
 8000772:	f443 7300 	orr.w	r3, r3, #512	; 0x200
 8000776:	6013      	str	r3, [r2, #0]
 8000778:	e00e      	b.n	8000798 <i2c_stop+0x48>
 800077a:	79fb      	ldrb	r3, [r7, #7]
 800077c:	2b02      	cmp	r3, #2
 800077e:	d10b      	bne.n	8000798 <i2c_stop+0x48>
 8000780:	4b09      	ldr	r3, [pc, #36]	; (80007a8 <i2c_stop+0x58>)
 8000782:	695b      	ldr	r3, [r3, #20]
 8000784:	60fb      	str	r3, [r7, #12]
 8000786:	4b08      	ldr	r3, [pc, #32]	; (80007a8 <i2c_stop+0x58>)
 8000788:	699b      	ldr	r3, [r3, #24]
 800078a:	60fb      	str	r3, [r7, #12]
 800078c:	4b06      	ldr	r3, [pc, #24]	; (80007a8 <i2c_stop+0x58>)
 800078e:	681b      	ldr	r3, [r3, #0]
 8000790:	4a05      	ldr	r2, [pc, #20]	; (80007a8 <i2c_stop+0x58>)
 8000792:	f443 7300 	orr.w	r3, r3, #512	; 0x200
 8000796:	6013      	str	r3, [r2, #0]
 8000798:	bf00      	nop
 800079a:	3714      	adds	r7, #20
 800079c:	46bd      	mov	sp, r7
 800079e:	bc80      	pop	{r7}
 80007a0:	4770      	bx	lr
 80007a2:	bf00      	nop
 80007a4:	40005400 	andmi	r5, r0, r0, lsl #8
 80007a8:	40005800 	andmi	r5, r0, r0, lsl #16

080007ac <i2c_write>:
 80007ac:	b580      	push	{r7, lr}
 80007ae:	b084      	sub	sp, #16
 80007b0:	af00      	add	r7, sp, #0
 80007b2:	4603      	mov	r3, r0
 80007b4:	603a      	str	r2, [r7, #0]
 80007b6:	71fb      	strb	r3, [r7, #7]
 80007b8:	460b      	mov	r3, r1
 80007ba:	71bb      	strb	r3, [r7, #6]
 80007bc:	2300      	movs	r3, #0
 80007be:	60fb      	str	r3, [r7, #12]
 80007c0:	79fb      	ldrb	r3, [r7, #7]
 80007c2:	4618      	mov	r0, r3
 80007c4:	f7ff ff5a 	bl	800067c <i2c_start>
 80007c8:	79b9      	ldrb	r1, [r7, #6]
 80007ca:	79fb      	ldrb	r3, [r7, #7]
 80007cc:	2200      	movs	r2, #0
 80007ce:	4618      	mov	r0, r3
 80007d0:	f7ff fefa 	bl	80005c8 <i2c_add>
 80007d4:	e00b      	b.n	80007ee <i2c_write+0x42>
 80007d6:	68fb      	ldr	r3, [r7, #12]
 80007d8:	683a      	ldr	r2, [r7, #0]
 80007da:	4413      	add	r3, r2
 80007dc:	781a      	ldrb	r2, [r3, #0]
 80007de:	79fb      	ldrb	r3, [r7, #7]
 80007e0:	4611      	mov	r1, r2
 80007e2:	4618      	mov	r0, r3
 80007e4:	f7ff ff7a 	bl	80006dc <i2c_data>
 80007e8:	68fb      	ldr	r3, [r7, #12]
 80007ea:	3301      	adds	r3, #1
 80007ec:	60fb      	str	r3, [r7, #12]
 80007ee:	68fb      	ldr	r3, [r7, #12]
 80007f0:	683a      	ldr	r2, [r7, #0]
 80007f2:	4413      	add	r3, r2
 80007f4:	781b      	ldrb	r3, [r3, #0]
 80007f6:	2b00      	cmp	r3, #0
 80007f8:	d1ed      	bne.n	80007d6 <i2c_write+0x2a>
 80007fa:	79fb      	ldrb	r3, [r7, #7]
 80007fc:	4618      	mov	r0, r3
 80007fe:	f7ff ffa7 	bl	8000750 <i2c_stop>
 8000802:	bf00      	nop
 8000804:	3710      	adds	r7, #16
 8000806:	46bd      	mov	sp, r7
 8000808:	bd80      	pop	{r7, pc}
 800080a:	bf00      	nop

0800080c <oled_cmd_1byte>:
 800080c:	b580      	push	{r7, lr}
 800080e:	b082      	sub	sp, #8
 8000810:	af00      	add	r7, sp, #0
 8000812:	4603      	mov	r3, r0
 8000814:	460a      	mov	r2, r1
 8000816:	71fb      	strb	r3, [r7, #7]
 8000818:	4613      	mov	r3, r2
 800081a:	71bb      	strb	r3, [r7, #6]
 800081c:	79fb      	ldrb	r3, [r7, #7]
 800081e:	4618      	mov	r0, r3
 8000820:	f7ff ff2c 	bl	800067c <i2c_start>
 8000824:	79fb      	ldrb	r3, [r7, #7]
 8000826:	2200      	movs	r2, #0
 8000828:	2178      	movs	r1, #120	; 0x78
 800082a:	4618      	mov	r0, r3
 800082c:	f7ff fecc 	bl	80005c8 <i2c_add>
 8000830:	79fb      	ldrb	r3, [r7, #7]
 8000832:	2100      	movs	r1, #0
 8000834:	4618      	mov	r0, r3
 8000836:	f7ff ff51 	bl	80006dc <i2c_data>
 800083a:	79ba      	ldrb	r2, [r7, #6]
 800083c:	79fb      	ldrb	r3, [r7, #7]
 800083e:	4611      	mov	r1, r2
 8000840:	4618      	mov	r0, r3
 8000842:	f7ff ff4b 	bl	80006dc <i2c_data>
 8000846:	79fb      	ldrb	r3, [r7, #7]
 8000848:	4618      	mov	r0, r3
 800084a:	f7ff ff81 	bl	8000750 <i2c_stop>
 800084e:	bf00      	nop
 8000850:	3708      	adds	r7, #8
 8000852:	46bd      	mov	sp, r7
 8000854:	bd80      	pop	{r7, pc}

08000856 <oled_cmd_2byte>:
 8000856:	b580      	push	{r7, lr}
 8000858:	b084      	sub	sp, #16
 800085a:	af00      	add	r7, sp, #0
 800085c:	4603      	mov	r3, r0
 800085e:	6039      	str	r1, [r7, #0]
 8000860:	71fb      	strb	r3, [r7, #7]
 8000862:	2300      	movs	r3, #0
 8000864:	60fb      	str	r3, [r7, #12]
 8000866:	79fb      	ldrb	r3, [r7, #7]
 8000868:	4618      	mov	r0, r3
 800086a:	f7ff ff07 	bl	800067c <i2c_start>
 800086e:	79fb      	ldrb	r3, [r7, #7]
 8000870:	2200      	movs	r2, #0
 8000872:	2178      	movs	r1, #120	; 0x78
 8000874:	4618      	mov	r0, r3
 8000876:	f7ff fea7 	bl	80005c8 <i2c_add>
 800087a:	79fb      	ldrb	r3, [r7, #7]
 800087c:	2100      	movs	r1, #0
 800087e:	4618      	mov	r0, r3
 8000880:	f7ff ff2c 	bl	80006dc <i2c_data>
 8000884:	2300      	movs	r3, #0
 8000886:	60fb      	str	r3, [r7, #12]
 8000888:	e00b      	b.n	80008a2 <oled_cmd_2byte+0x4c>
 800088a:	68fb      	ldr	r3, [r7, #12]
 800088c:	683a      	ldr	r2, [r7, #0]
 800088e:	4413      	add	r3, r2
 8000890:	781a      	ldrb	r2, [r3, #0]
 8000892:	79fb      	ldrb	r3, [r7, #7]
 8000894:	4611      	mov	r1, r2
 8000896:	4618      	mov	r0, r3
 8000898:	f7ff ff20 	bl	80006dc <i2c_data>
 800089c:	68fb      	ldr	r3, [r7, #12]
 800089e:	3301      	adds	r3, #1
 80008a0:	60fb      	str	r3, [r7, #12]
 80008a2:	68fb      	ldr	r3, [r7, #12]
 80008a4:	2b01      	cmp	r3, #1
 80008a6:	ddf0      	ble.n	800088a <oled_cmd_2byte+0x34>
 80008a8:	79fb      	ldrb	r3, [r7, #7]
 80008aa:	4618      	mov	r0, r3
 80008ac:	f7ff ff50 	bl	8000750 <i2c_stop>
 80008b0:	bf00      	nop
 80008b2:	3710      	adds	r7, #16
 80008b4:	46bd      	mov	sp, r7
 80008b6:	bd80      	pop	{r7, pc}

080008b8 <oled_init>:
 80008b8:	b580      	push	{r7, lr}
 80008ba:	b08a      	sub	sp, #40	; 0x28
 80008bc:	af00      	add	r7, sp, #0
 80008be:	4603      	mov	r3, r0
 80008c0:	71fb      	strb	r3, [r7, #7]
 80008c2:	79fb      	ldrb	r3, [r7, #7]
 80008c4:	212d      	movs	r1, #45	; 0x2d
 80008c6:	4618      	mov	r0, r3
 80008c8:	f7ff fe08 	bl	80004dc <i2c_init>
 80008cc:	f643 73a8 	movw	r3, #16296	; 0x3fa8
 80008d0:	84bb      	strh	r3, [r7, #36]	; 0x24
 80008d2:	f107 0224 	add.w	r2, r7, #36	; 0x24
 80008d6:	79fb      	ldrb	r3, [r7, #7]
 80008d8:	4611      	mov	r1, r2
 80008da:	4618      	mov	r0, r3
 80008dc:	f7ff ffbb 	bl	8000856 <oled_cmd_2byte>
 80008e0:	23d3      	movs	r3, #211	; 0xd3
 80008e2:	843b      	strh	r3, [r7, #32]
 80008e4:	f107 0220 	add.w	r2, r7, #32
 80008e8:	79fb      	ldrb	r3, [r7, #7]
 80008ea:	4611      	mov	r1, r2
 80008ec:	4618      	mov	r0, r3
 80008ee:	f7ff ffb2 	bl	8000856 <oled_cmd_2byte>
 80008f2:	79fb      	ldrb	r3, [r7, #7]
 80008f4:	2140      	movs	r1, #64	; 0x40
 80008f6:	4618      	mov	r0, r3
 80008f8:	f7ff ff88 	bl	800080c <oled_cmd_1byte>
 80008fc:	79fb      	ldrb	r3, [r7, #7]
 80008fe:	21a1      	movs	r1, #161	; 0xa1
 8000900:	4618      	mov	r0, r3
 8000902:	f7ff ff83 	bl	800080c <oled_cmd_1byte>
 8000906:	79fb      	ldrb	r3, [r7, #7]
 8000908:	21c8      	movs	r1, #200	; 0xc8
 800090a:	4618      	mov	r0, r3
 800090c:	f7ff ff7e 	bl	800080c <oled_cmd_1byte>
 8000910:	f241 23da 	movw	r3, #4826	; 0x12da
 8000914:	83bb      	strh	r3, [r7, #28]
 8000916:	f107 021c 	add.w	r2, r7, #28
 800091a:	79fb      	ldrb	r3, [r7, #7]
 800091c:	4611      	mov	r1, r2
 800091e:	4618      	mov	r0, r3
 8000920:	f7ff ff99 	bl	8000856 <oled_cmd_2byte>
 8000924:	f647 7381 	movw	r3, #32641	; 0x7f81
 8000928:	833b      	strh	r3, [r7, #24]
 800092a:	f107 0218 	add.w	r2, r7, #24
 800092e:	79fb      	ldrb	r3, [r7, #7]
 8000930:	4611      	mov	r1, r2
 8000932:	4618      	mov	r0, r3
 8000934:	f7ff ff8f 	bl	8000856 <oled_cmd_2byte>
 8000938:	79fb      	ldrb	r3, [r7, #7]
 800093a:	21a4      	movs	r1, #164	; 0xa4
 800093c:	4618      	mov	r0, r3
 800093e:	f7ff ff65 	bl	800080c <oled_cmd_1byte>
 8000942:	79fb      	ldrb	r3, [r7, #7]
 8000944:	21a6      	movs	r1, #166	; 0xa6
 8000946:	4618      	mov	r0, r3
 8000948:	f7ff ff60 	bl	800080c <oled_cmd_1byte>
 800094c:	f248 03d5 	movw	r3, #32981	; 0x80d5
 8000950:	82bb      	strh	r3, [r7, #20]
 8000952:	f107 0214 	add.w	r2, r7, #20
 8000956:	79fb      	ldrb	r3, [r7, #7]
 8000958:	4611      	mov	r1, r2
 800095a:	4618      	mov	r0, r3
 800095c:	f7ff ff7b 	bl	8000856 <oled_cmd_2byte>
 8000960:	f241 438d 	movw	r3, #5261	; 0x148d
 8000964:	823b      	strh	r3, [r7, #16]
 8000966:	f107 0210 	add.w	r2, r7, #16
 800096a:	79fb      	ldrb	r3, [r7, #7]
 800096c:	4611      	mov	r1, r2
 800096e:	4618      	mov	r0, r3
 8000970:	f7ff ff71 	bl	8000856 <oled_cmd_2byte>
 8000974:	79fb      	ldrb	r3, [r7, #7]
 8000976:	21af      	movs	r1, #175	; 0xaf
 8000978:	4618      	mov	r0, r3
 800097a:	f7ff ff47 	bl	800080c <oled_cmd_1byte>
 800097e:	f44f 5381 	mov.w	r3, #4128	; 0x1020
 8000982:	81bb      	strh	r3, [r7, #12]
 8000984:	f107 020c 	add.w	r2, r7, #12
 8000988:	79fb      	ldrb	r3, [r7, #7]
 800098a:	4611      	mov	r1, r2
 800098c:	4618      	mov	r0, r3
 800098e:	f7ff ff62 	bl	8000856 <oled_cmd_2byte>
 8000992:	bf00      	nop
 8000994:	3728      	adds	r7, #40	; 0x28
 8000996:	46bd      	mov	sp, r7
 8000998:	bd80      	pop	{r7, pc}

0800099a <oled_data>:
 800099a:	b580      	push	{r7, lr}
 800099c:	b082      	sub	sp, #8
 800099e:	af00      	add	r7, sp, #0
 80009a0:	4603      	mov	r3, r0
 80009a2:	460a      	mov	r2, r1
 80009a4:	71fb      	strb	r3, [r7, #7]
 80009a6:	4613      	mov	r3, r2
 80009a8:	71bb      	strb	r3, [r7, #6]
 80009aa:	79fb      	ldrb	r3, [r7, #7]
 80009ac:	4618      	mov	r0, r3
 80009ae:	f7ff fe65 	bl	800067c <i2c_start>
 80009b2:	79fb      	ldrb	r3, [r7, #7]
 80009b4:	2200      	movs	r2, #0
 80009b6:	2178      	movs	r1, #120	; 0x78
 80009b8:	4618      	mov	r0, r3
 80009ba:	f7ff fe05 	bl	80005c8 <i2c_add>
 80009be:	79fb      	ldrb	r3, [r7, #7]
 80009c0:	2140      	movs	r1, #64	; 0x40
 80009c2:	4618      	mov	r0, r3
 80009c4:	f7ff fe8a 	bl	80006dc <i2c_data>
 80009c8:	79ba      	ldrb	r2, [r7, #6]
 80009ca:	79fb      	ldrb	r3, [r7, #7]
 80009cc:	4611      	mov	r1, r2
 80009ce:	4618      	mov	r0, r3
 80009d0:	f7ff fe84 	bl	80006dc <i2c_data>
 80009d4:	79fb      	ldrb	r3, [r7, #7]
 80009d6:	4618      	mov	r0, r3
 80009d8:	f7ff feba 	bl	8000750 <i2c_stop>
 80009dc:	bf00      	nop
 80009de:	3708      	adds	r7, #8
 80009e0:	46bd      	mov	sp, r7
 80009e2:	bd80      	pop	{r7, pc}

080009e4 <oled_pos>:
 80009e4:	b580      	push	{r7, lr}
 80009e6:	b082      	sub	sp, #8
 80009e8:	af00      	add	r7, sp, #0
 80009ea:	4603      	mov	r3, r0
 80009ec:	71fb      	strb	r3, [r7, #7]
 80009ee:	460b      	mov	r3, r1
 80009f0:	71bb      	strb	r3, [r7, #6]
 80009f2:	4613      	mov	r3, r2
 80009f4:	717b      	strb	r3, [r7, #5]
 80009f6:	797b      	ldrb	r3, [r7, #5]
 80009f8:	f003 030f 	and.w	r3, r3, #15
 80009fc:	b2da      	uxtb	r2, r3
 80009fe:	79fb      	ldrb	r3, [r7, #7]
 8000a00:	4611      	mov	r1, r2
 8000a02:	4618      	mov	r0, r3
 8000a04:	f7ff ff02 	bl	800080c <oled_cmd_1byte>
 8000a08:	797b      	ldrb	r3, [r7, #5]
 8000a0a:	091b      	lsrs	r3, r3, #4
 8000a0c:	b2db      	uxtb	r3, r3
 8000a0e:	3310      	adds	r3, #16
 8000a10:	b2da      	uxtb	r2, r3
 8000a12:	79fb      	ldrb	r3, [r7, #7]
 8000a14:	4611      	mov	r1, r2
 8000a16:	4618      	mov	r0, r3
 8000a18:	f7ff fef8 	bl	800080c <oled_cmd_1byte>
 8000a1c:	79bb      	ldrb	r3, [r7, #6]
 8000a1e:	3b50      	subs	r3, #80	; 0x50
 8000a20:	b2da      	uxtb	r2, r3
 8000a22:	79fb      	ldrb	r3, [r7, #7]
 8000a24:	4611      	mov	r1, r2
 8000a26:	4618      	mov	r0, r3
 8000a28:	f7ff fef0 	bl	800080c <oled_cmd_1byte>
 8000a2c:	bf00      	nop
 8000a2e:	3708      	adds	r7, #8
 8000a30:	46bd      	mov	sp, r7
 8000a32:	bd80      	pop	{r7, pc}

08000a34 <oled_blank>:
 8000a34:	b580      	push	{r7, lr}
 8000a36:	b084      	sub	sp, #16
 8000a38:	af00      	add	r7, sp, #0
 8000a3a:	4603      	mov	r3, r0
 8000a3c:	71fb      	strb	r3, [r7, #7]
 8000a3e:	79fb      	ldrb	r3, [r7, #7]
 8000a40:	2200      	movs	r2, #0
 8000a42:	2100      	movs	r1, #0
 8000a44:	4618      	mov	r0, r3
 8000a46:	f7ff ffcd 	bl	80009e4 <oled_pos>
 8000a4a:	2300      	movs	r3, #0
 8000a4c:	60fb      	str	r3, [r7, #12]
 8000a4e:	e010      	b.n	8000a72 <oled_blank+0x3e>
 8000a50:	2300      	movs	r3, #0
 8000a52:	60bb      	str	r3, [r7, #8]
 8000a54:	e007      	b.n	8000a66 <oled_blank+0x32>
 8000a56:	79fb      	ldrb	r3, [r7, #7]
 8000a58:	2100      	movs	r1, #0
 8000a5a:	4618      	mov	r0, r3
 8000a5c:	f7ff ff9d 	bl	800099a <oled_data>
 8000a60:	68bb      	ldr	r3, [r7, #8]
 8000a62:	3301      	adds	r3, #1
 8000a64:	60bb      	str	r3, [r7, #8]
 8000a66:	68bb      	ldr	r3, [r7, #8]
 8000a68:	2b7f      	cmp	r3, #127	; 0x7f
 8000a6a:	ddf4      	ble.n	8000a56 <oled_blank+0x22>
 8000a6c:	68fb      	ldr	r3, [r7, #12]
 8000a6e:	3301      	adds	r3, #1
 8000a70:	60fb      	str	r3, [r7, #12]
 8000a72:	68fb      	ldr	r3, [r7, #12]
 8000a74:	2b07      	cmp	r3, #7
 8000a76:	ddeb      	ble.n	8000a50 <oled_blank+0x1c>
 8000a78:	79fb      	ldrb	r3, [r7, #7]
 8000a7a:	2200      	movs	r2, #0
 8000a7c:	2100      	movs	r1, #0
 8000a7e:	4618      	mov	r0, r3
 8000a80:	f7ff ffb0 	bl	80009e4 <oled_pos>
 8000a84:	bf00      	nop
 8000a86:	3710      	adds	r7, #16
 8000a88:	46bd      	mov	sp, r7
 8000a8a:	bd80      	pop	{r7, pc}

08000a8c <oled_print>:
 8000a8c:	b580      	push	{r7, lr}
 8000a8e:	b084      	sub	sp, #16
 8000a90:	af00      	add	r7, sp, #0
 8000a92:	4603      	mov	r3, r0
 8000a94:	6039      	str	r1, [r7, #0]
 8000a96:	71fb      	strb	r3, [r7, #7]
 8000a98:	2300      	movs	r3, #0
 8000a9a:	60fb      	str	r3, [r7, #12]
 8000a9c:	e01e      	b.n	8000adc <oled_print+0x50>
 8000a9e:	2300      	movs	r3, #0
 8000aa0:	60bb      	str	r3, [r7, #8]
 8000aa2:	e015      	b.n	8000ad0 <oled_print+0x44>
 8000aa4:	68fb      	ldr	r3, [r7, #12]
 8000aa6:	683a      	ldr	r2, [r7, #0]
 8000aa8:	4413      	add	r3, r2
 8000aaa:	781b      	ldrb	r3, [r3, #0]
 8000aac:	f1a3 0220 	sub.w	r2, r3, #32
 8000ab0:	4910      	ldr	r1, [pc, #64]	; (8000af4 <oled_print+0x68>)
 8000ab2:	4613      	mov	r3, r2
 8000ab4:	009b      	lsls	r3, r3, #2
 8000ab6:	4413      	add	r3, r2
 8000ab8:	18ca      	adds	r2, r1, r3
 8000aba:	68bb      	ldr	r3, [r7, #8]
 8000abc:	4413      	add	r3, r2
 8000abe:	781a      	ldrb	r2, [r3, #0]
 8000ac0:	79fb      	ldrb	r3, [r7, #7]
 8000ac2:	4611      	mov	r1, r2
 8000ac4:	4618      	mov	r0, r3
 8000ac6:	f7ff ff68 	bl	800099a <oled_data>
 8000aca:	68bb      	ldr	r3, [r7, #8]
 8000acc:	3301      	adds	r3, #1
 8000ace:	60bb      	str	r3, [r7, #8]
 8000ad0:	68bb      	ldr	r3, [r7, #8]
 8000ad2:	2b04      	cmp	r3, #4
 8000ad4:	dde6      	ble.n	8000aa4 <oled_print+0x18>
 8000ad6:	68fb      	ldr	r3, [r7, #12]
 8000ad8:	3301      	adds	r3, #1
 8000ada:	60fb      	str	r3, [r7, #12]
 8000adc:	68fb      	ldr	r3, [r7, #12]
 8000ade:	683a      	ldr	r2, [r7, #0]
 8000ae0:	4413      	add	r3, r2
 8000ae2:	781b      	ldrb	r3, [r3, #0]
 8000ae4:	2b00      	cmp	r3, #0
 8000ae6:	d1da      	bne.n	8000a9e <oled_print+0x12>
 8000ae8:	bf00      	nop
 8000aea:	bf00      	nop
 8000aec:	3710      	adds	r7, #16
 8000aee:	46bd      	mov	sp, r7
 8000af0:	bd80      	pop	{r7, pc}
 8000af2:	bf00      	nop
 8000af4:	08001360 	stmdaeq	r0, {r5, r6, r8, r9, ip}

08000af8 <oled_msg>:
 8000af8:	b580      	push	{r7, lr}
 8000afa:	b082      	sub	sp, #8
 8000afc:	af00      	add	r7, sp, #0
 8000afe:	603b      	str	r3, [r7, #0]
 8000b00:	4603      	mov	r3, r0
 8000b02:	71fb      	strb	r3, [r7, #7]
 8000b04:	460b      	mov	r3, r1
 8000b06:	71bb      	strb	r3, [r7, #6]
 8000b08:	4613      	mov	r3, r2
 8000b0a:	717b      	strb	r3, [r7, #5]
 8000b0c:	797a      	ldrb	r2, [r7, #5]
 8000b0e:	79b9      	ldrb	r1, [r7, #6]
 8000b10:	79fb      	ldrb	r3, [r7, #7]
 8000b12:	4618      	mov	r0, r3
 8000b14:	f7ff ff66 	bl	80009e4 <oled_pos>
 8000b18:	79fb      	ldrb	r3, [r7, #7]
 8000b1a:	6839      	ldr	r1, [r7, #0]
 8000b1c:	4618      	mov	r0, r3
 8000b1e:	f7ff ffb5 	bl	8000a8c <oled_print>
 8000b22:	bf00      	nop
 8000b24:	3708      	adds	r7, #8
 8000b26:	46bd      	mov	sp, r7
 8000b28:	bd80      	pop	{r7, pc}

08000b2a <oled_Aprint>:
 8000b2a:	b580      	push	{r7, lr}
 8000b2c:	b084      	sub	sp, #16
 8000b2e:	af00      	add	r7, sp, #0
 8000b30:	4603      	mov	r3, r0
 8000b32:	6039      	str	r1, [r7, #0]
 8000b34:	71fb      	strb	r3, [r7, #7]
 8000b36:	2300      	movs	r3, #0
 8000b38:	60fb      	str	r3, [r7, #12]
 8000b3a:	e010      	b.n	8000b5e <oled_Aprint+0x34>
 8000b3c:	490c      	ldr	r1, [pc, #48]	; (8000b70 <oled_Aprint+0x46>)
 8000b3e:	683a      	ldr	r2, [r7, #0]
 8000b40:	4613      	mov	r3, r2
 8000b42:	009b      	lsls	r3, r3, #2
 8000b44:	4413      	add	r3, r2
 8000b46:	18ca      	adds	r2, r1, r3
 8000b48:	68fb      	ldr	r3, [r7, #12]
 8000b4a:	4413      	add	r3, r2
 8000b4c:	781a      	ldrb	r2, [r3, #0]
 8000b4e:	79fb      	ldrb	r3, [r7, #7]
 8000b50:	4611      	mov	r1, r2
 8000b52:	4618      	mov	r0, r3
 8000b54:	f7ff ff21 	bl	800099a <oled_data>
 8000b58:	68fb      	ldr	r3, [r7, #12]
 8000b5a:	3301      	adds	r3, #1
 8000b5c:	60fb      	str	r3, [r7, #12]
 8000b5e:	68fb      	ldr	r3, [r7, #12]
 8000b60:	2b04      	cmp	r3, #4
 8000b62:	ddeb      	ble.n	8000b3c <oled_Aprint+0x12>
 8000b64:	bf00      	nop
 8000b66:	bf00      	nop
 8000b68:	3710      	adds	r7, #16
 8000b6a:	46bd      	mov	sp, r7
 8000b6c:	bd80      	pop	{r7, pc}
 8000b6e:	bf00      	nop
 8000b70:	08001360 	stmdaeq	r0, {r5, r6, r8, r9, ip}

08000b74 <oled_clock>:
 8000b74:	b580      	push	{r7, lr}
 8000b76:	b082      	sub	sp, #8
 8000b78:	af00      	add	r7, sp, #0
 8000b7a:	4603      	mov	r3, r0
 8000b7c:	6039      	str	r1, [r7, #0]
 8000b7e:	71fb      	strb	r3, [r7, #7]
 8000b80:	683b      	ldr	r3, [r7, #0]
 8000b82:	4a16      	ldr	r2, [pc, #88]	; (8000bdc <oled_clock+0x68>)
 8000b84:	fb82 1203 	smull	r1, r2, r2, r3
 8000b88:	1092      	asrs	r2, r2, #2
 8000b8a:	17db      	asrs	r3, r3, #31
 8000b8c:	1ad1      	subs	r1, r2, r3
 8000b8e:	4b13      	ldr	r3, [pc, #76]	; (8000bdc <oled_clock+0x68>)
 8000b90:	fb83 2301 	smull	r2, r3, r3, r1
 8000b94:	109a      	asrs	r2, r3, #2
 8000b96:	17cb      	asrs	r3, r1, #31
 8000b98:	1ad2      	subs	r2, r2, r3
 8000b9a:	4613      	mov	r3, r2
 8000b9c:	009b      	lsls	r3, r3, #2
 8000b9e:	4413      	add	r3, r2
 8000ba0:	005b      	lsls	r3, r3, #1
 8000ba2:	1aca      	subs	r2, r1, r3
 8000ba4:	3210      	adds	r2, #16
 8000ba6:	79fb      	ldrb	r3, [r7, #7]
 8000ba8:	4611      	mov	r1, r2
 8000baa:	4618      	mov	r0, r3
 8000bac:	f7ff ffbd 	bl	8000b2a <oled_Aprint>
 8000bb0:	6839      	ldr	r1, [r7, #0]
 8000bb2:	4b0a      	ldr	r3, [pc, #40]	; (8000bdc <oled_clock+0x68>)
 8000bb4:	fb83 2301 	smull	r2, r3, r3, r1
 8000bb8:	109a      	asrs	r2, r3, #2
 8000bba:	17cb      	asrs	r3, r1, #31
 8000bbc:	1ad2      	subs	r2, r2, r3
 8000bbe:	4613      	mov	r3, r2
 8000bc0:	009b      	lsls	r3, r3, #2
 8000bc2:	4413      	add	r3, r2
 8000bc4:	005b      	lsls	r3, r3, #1
 8000bc6:	1aca      	subs	r2, r1, r3
 8000bc8:	3210      	adds	r2, #16
 8000bca:	79fb      	ldrb	r3, [r7, #7]
 8000bcc:	4611      	mov	r1, r2
 8000bce:	4618      	mov	r0, r3
 8000bd0:	f7ff ffab 	bl	8000b2a <oled_Aprint>
 8000bd4:	bf00      	nop
 8000bd6:	3708      	adds	r7, #8
 8000bd8:	46bd      	mov	sp, r7
 8000bda:	bd80      	pop	{r7, pc}
 8000bdc:	66666667 	strbtvs	r6, [r6], -r7, ror #12

08000be0 <oled_clear_buffer>:
 8000be0:	b480      	push	{r7}
 8000be2:	b085      	sub	sp, #20
 8000be4:	af00      	add	r7, sp, #0
 8000be6:	6078      	str	r0, [r7, #4]
 8000be8:	2300      	movs	r3, #0
 8000bea:	60fb      	str	r3, [r7, #12]
 8000bec:	e013      	b.n	8000c16 <oled_clear_buffer+0x36>
 8000bee:	2300      	movs	r3, #0
 8000bf0:	60bb      	str	r3, [r7, #8]
 8000bf2:	e00a      	b.n	8000c0a <oled_clear_buffer+0x2a>
 8000bf4:	68fb      	ldr	r3, [r7, #12]
 8000bf6:	01db      	lsls	r3, r3, #7
 8000bf8:	687a      	ldr	r2, [r7, #4]
 8000bfa:	441a      	add	r2, r3
 8000bfc:	68bb      	ldr	r3, [r7, #8]
 8000bfe:	4413      	add	r3, r2
 8000c00:	2200      	movs	r2, #0
 8000c02:	701a      	strb	r2, [r3, #0]
 8000c04:	68bb      	ldr	r3, [r7, #8]
 8000c06:	3301      	adds	r3, #1
 8000c08:	60bb      	str	r3, [r7, #8]
 8000c0a:	68bb      	ldr	r3, [r7, #8]
 8000c0c:	2b7f      	cmp	r3, #127	; 0x7f
 8000c0e:	ddf1      	ble.n	8000bf4 <oled_clear_buffer+0x14>
 8000c10:	68fb      	ldr	r3, [r7, #12]
 8000c12:	3301      	adds	r3, #1
 8000c14:	60fb      	str	r3, [r7, #12]
 8000c16:	68fb      	ldr	r3, [r7, #12]
 8000c18:	2b07      	cmp	r3, #7
 8000c1a:	dde8      	ble.n	8000bee <oled_clear_buffer+0xe>
 8000c1c:	bf00      	nop
 8000c1e:	bf00      	nop
 8000c20:	3714      	adds	r7, #20
 8000c22:	46bd      	mov	sp, r7
 8000c24:	bc80      	pop	{r7}
 8000c26:	4770      	bx	lr

08000c28 <oled_update_buffer>:
 8000c28:	b480      	push	{r7}
 8000c2a:	b087      	sub	sp, #28
 8000c2c:	af00      	add	r7, sp, #0
 8000c2e:	6078      	str	r0, [r7, #4]
 8000c30:	6039      	str	r1, [r7, #0]
 8000c32:	2300      	movs	r3, #0
 8000c34:	60fb      	str	r3, [r7, #12]
 8000c36:	2300      	movs	r3, #0
 8000c38:	617b      	str	r3, [r7, #20]
 8000c3a:	e01a      	b.n	8000c72 <oled_update_buffer+0x4a>
 8000c3c:	2300      	movs	r3, #0
 8000c3e:	613b      	str	r3, [r7, #16]
 8000c40:	e011      	b.n	8000c66 <oled_update_buffer+0x3e>
 8000c42:	68fb      	ldr	r3, [r7, #12]
 8000c44:	3301      	adds	r3, #1
 8000c46:	60fb      	str	r3, [r7, #12]
 8000c48:	68fb      	ldr	r3, [r7, #12]
 8000c4a:	687a      	ldr	r2, [r7, #4]
 8000c4c:	4413      	add	r3, r2
 8000c4e:	697a      	ldr	r2, [r7, #20]
 8000c50:	01d2      	lsls	r2, r2, #7
 8000c52:	6839      	ldr	r1, [r7, #0]
 8000c54:	440a      	add	r2, r1
 8000c56:	7819      	ldrb	r1, [r3, #0]
 8000c58:	693b      	ldr	r3, [r7, #16]
 8000c5a:	4413      	add	r3, r2
 8000c5c:	460a      	mov	r2, r1
 8000c5e:	701a      	strb	r2, [r3, #0]
 8000c60:	693b      	ldr	r3, [r7, #16]
 8000c62:	3301      	adds	r3, #1
 8000c64:	613b      	str	r3, [r7, #16]
 8000c66:	693b      	ldr	r3, [r7, #16]
 8000c68:	2b6d      	cmp	r3, #109	; 0x6d
 8000c6a:	ddea      	ble.n	8000c42 <oled_update_buffer+0x1a>
 8000c6c:	697b      	ldr	r3, [r7, #20]
 8000c6e:	3301      	adds	r3, #1
 8000c70:	617b      	str	r3, [r7, #20]
 8000c72:	697b      	ldr	r3, [r7, #20]
 8000c74:	2b07      	cmp	r3, #7
 8000c76:	dde1      	ble.n	8000c3c <oled_update_buffer+0x14>
 8000c78:	bf00      	nop
 8000c7a:	bf00      	nop
 8000c7c:	371c      	adds	r7, #28
 8000c7e:	46bd      	mov	sp, r7
 8000c80:	bc80      	pop	{r7}
 8000c82:	4770      	bx	lr

08000c84 <update_str_buffer>:
 8000c84:	b480      	push	{r7}
 8000c86:	b089      	sub	sp, #36	; 0x24
 8000c88:	af00      	add	r7, sp, #0
 8000c8a:	60ba      	str	r2, [r7, #8]
 8000c8c:	607b      	str	r3, [r7, #4]
 8000c8e:	4603      	mov	r3, r0
 8000c90:	81fb      	strh	r3, [r7, #14]
 8000c92:	460b      	mov	r3, r1
 8000c94:	81bb      	strh	r3, [r7, #12]
 8000c96:	f9b7 300c 	ldrsh.w	r3, [r7, #12]
 8000c9a:	617b      	str	r3, [r7, #20]
 8000c9c:	f9b7 300e 	ldrsh.w	r3, [r7, #14]
 8000ca0:	613b      	str	r3, [r7, #16]
 8000ca2:	2300      	movs	r3, #0
 8000ca4:	61fb      	str	r3, [r7, #28]
 8000ca6:	e035      	b.n	8000d14 <update_str_buffer+0x90>
 8000ca8:	693b      	ldr	r3, [r7, #16]
 8000caa:	2b08      	cmp	r3, #8
 8000cac:	dc39      	bgt.n	8000d22 <update_str_buffer+0x9e>
 8000cae:	2300      	movs	r3, #0
 8000cb0:	61bb      	str	r3, [r7, #24]
 8000cb2:	e027      	b.n	8000d04 <update_str_buffer+0x80>
 8000cb4:	69fb      	ldr	r3, [r7, #28]
 8000cb6:	68ba      	ldr	r2, [r7, #8]
 8000cb8:	4413      	add	r3, r2
 8000cba:	781b      	ldrb	r3, [r3, #0]
 8000cbc:	f1a3 0220 	sub.w	r2, r3, #32
 8000cc0:	693b      	ldr	r3, [r7, #16]
 8000cc2:	01db      	lsls	r3, r3, #7
 8000cc4:	6879      	ldr	r1, [r7, #4]
 8000cc6:	4419      	add	r1, r3
 8000cc8:	4819      	ldr	r0, [pc, #100]	; (8000d30 <update_str_buffer+0xac>)
 8000cca:	4613      	mov	r3, r2
 8000ccc:	009b      	lsls	r3, r3, #2
 8000cce:	4413      	add	r3, r2
 8000cd0:	18c2      	adds	r2, r0, r3
 8000cd2:	69bb      	ldr	r3, [r7, #24]
 8000cd4:	4413      	add	r3, r2
 8000cd6:	781a      	ldrb	r2, [r3, #0]
 8000cd8:	697b      	ldr	r3, [r7, #20]
 8000cda:	440b      	add	r3, r1
 8000cdc:	701a      	strb	r2, [r3, #0]
 8000cde:	697b      	ldr	r3, [r7, #20]
 8000ce0:	2b7e      	cmp	r3, #126	; 0x7e
 8000ce2:	dd09      	ble.n	8000cf8 <update_str_buffer+0x74>
 8000ce4:	693b      	ldr	r3, [r7, #16]
 8000ce6:	2b07      	cmp	r3, #7
 8000ce8:	dc10      	bgt.n	8000d0c <update_str_buffer+0x88>
 8000cea:	693b      	ldr	r3, [r7, #16]
 8000cec:	3301      	adds	r3, #1
 8000cee:	613b      	str	r3, [r7, #16]
 8000cf0:	f9b7 300c 	ldrsh.w	r3, [r7, #12]
 8000cf4:	617b      	str	r3, [r7, #20]
 8000cf6:	e002      	b.n	8000cfe <update_str_buffer+0x7a>
 8000cf8:	697b      	ldr	r3, [r7, #20]
 8000cfa:	3301      	adds	r3, #1
 8000cfc:	617b      	str	r3, [r7, #20]
 8000cfe:	69bb      	ldr	r3, [r7, #24]
 8000d00:	3301      	adds	r3, #1
 8000d02:	61bb      	str	r3, [r7, #24]
 8000d04:	69bb      	ldr	r3, [r7, #24]
 8000d06:	2b04      	cmp	r3, #4
 8000d08:	ddd4      	ble.n	8000cb4 <update_str_buffer+0x30>
 8000d0a:	e000      	b.n	8000d0e <update_str_buffer+0x8a>
 8000d0c:	bf00      	nop
 8000d0e:	69fb      	ldr	r3, [r7, #28]
 8000d10:	3301      	adds	r3, #1
 8000d12:	61fb      	str	r3, [r7, #28]
 8000d14:	69fb      	ldr	r3, [r7, #28]
 8000d16:	68ba      	ldr	r2, [r7, #8]
 8000d18:	4413      	add	r3, r2
 8000d1a:	781b      	ldrb	r3, [r3, #0]
 8000d1c:	2b00      	cmp	r3, #0
 8000d1e:	d1c3      	bne.n	8000ca8 <update_str_buffer+0x24>
 8000d20:	e000      	b.n	8000d24 <update_str_buffer+0xa0>
 8000d22:	bf00      	nop
 8000d24:	bf00      	nop
 8000d26:	3724      	adds	r7, #36	; 0x24
 8000d28:	46bd      	mov	sp, r7
 8000d2a:	bc80      	pop	{r7}
 8000d2c:	4770      	bx	lr
 8000d2e:	bf00      	nop
 8000d30:	08001360 	stmdaeq	r0, {r5, r6, r8, r9, ip}

08000d34 <print_buffer>:
 8000d34:	b580      	push	{r7, lr}
 8000d36:	b084      	sub	sp, #16
 8000d38:	af00      	add	r7, sp, #0
 8000d3a:	4603      	mov	r3, r0
 8000d3c:	6039      	str	r1, [r7, #0]
 8000d3e:	71fb      	strb	r3, [r7, #7]
 8000d40:	79fb      	ldrb	r3, [r7, #7]
 8000d42:	2200      	movs	r2, #0
 8000d44:	2101      	movs	r1, #1
 8000d46:	4618      	mov	r0, r3
 8000d48:	f7ff fe4c 	bl	80009e4 <oled_pos>
 8000d4c:	2300      	movs	r3, #0
 8000d4e:	60fb      	str	r3, [r7, #12]
 8000d50:	e017      	b.n	8000d82 <print_buffer+0x4e>
 8000d52:	2300      	movs	r3, #0
 8000d54:	60bb      	str	r3, [r7, #8]
 8000d56:	e00e      	b.n	8000d76 <print_buffer+0x42>
 8000d58:	68fb      	ldr	r3, [r7, #12]
 8000d5a:	01db      	lsls	r3, r3, #7
 8000d5c:	683a      	ldr	r2, [r7, #0]
 8000d5e:	441a      	add	r2, r3
 8000d60:	68bb      	ldr	r3, [r7, #8]
 8000d62:	4413      	add	r3, r2
 8000d64:	781a      	ldrb	r2, [r3, #0]
 8000d66:	79fb      	ldrb	r3, [r7, #7]
 8000d68:	4611      	mov	r1, r2
 8000d6a:	4618      	mov	r0, r3
 8000d6c:	f7ff fe15 	bl	800099a <oled_data>
 8000d70:	68bb      	ldr	r3, [r7, #8]
 8000d72:	3301      	adds	r3, #1
 8000d74:	60bb      	str	r3, [r7, #8]
 8000d76:	68bb      	ldr	r3, [r7, #8]
 8000d78:	2b7f      	cmp	r3, #127	; 0x7f
 8000d7a:	dded      	ble.n	8000d58 <print_buffer+0x24>
 8000d7c:	68fb      	ldr	r3, [r7, #12]
 8000d7e:	3301      	adds	r3, #1
 8000d80:	60fb      	str	r3, [r7, #12]
 8000d82:	68fb      	ldr	r3, [r7, #12]
 8000d84:	2b07      	cmp	r3, #7
 8000d86:	dde4      	ble.n	8000d52 <print_buffer+0x1e>
 8000d88:	bf00      	nop
 8000d8a:	bf00      	nop
 8000d8c:	3710      	adds	r7, #16
 8000d8e:	46bd      	mov	sp, r7
 8000d90:	bd80      	pop	{r7, pc}
 8000d92:	bf00      	nop

08000d94 <__disable_irq>:
 8000d94:	b480      	push	{r7}
 8000d96:	af00      	add	r7, sp, #0
 8000d98:	4b05      	ldr	r3, [pc, #20]	; (8000db0 <__disable_irq+0x1c>)
 8000d9a:	f8d3 30a0 	ldr.w	r3, [r3, #160]	; 0xa0
 8000d9e:	4b04      	ldr	r3, [pc, #16]	; (8000db0 <__disable_irq+0x1c>)
 8000da0:	2200      	movs	r2, #0
 8000da2:	f8c3 20a0 	str.w	r2, [r3, #160]	; 0xa0
 8000da6:	bf00      	nop
 8000da8:	46bd      	mov	sp, r7
 8000daa:	bc80      	pop	{r7}
 8000dac:	4770      	bx	lr
 8000dae:	bf00      	nop
 8000db0:	e000e100 	and	lr, r0, r0, lsl #2

08000db4 <__enable_irq>:
 8000db4:	b480      	push	{r7}
 8000db6:	af00      	add	r7, sp, #0
 8000db8:	4b04      	ldr	r3, [pc, #16]	; (8000dcc <__enable_irq+0x18>)
 8000dba:	6a1b      	ldr	r3, [r3, #32]
 8000dbc:	4b03      	ldr	r3, [pc, #12]	; (8000dcc <__enable_irq+0x18>)
 8000dbe:	f04f 32ff 	mov.w	r2, #4294967295	; 0xffffffff
 8000dc2:	621a      	str	r2, [r3, #32]
 8000dc4:	bf00      	nop
 8000dc6:	46bd      	mov	sp, r7
 8000dc8:	bc80      	pop	{r7}
 8000dca:	4770      	bx	lr
 8000dcc:	e000e100 	and	lr, r0, r0, lsl #2

08000dd0 <systickInit>:
 8000dd0:	b480      	push	{r7}
 8000dd2:	af00      	add	r7, sp, #0
 8000dd4:	4b08      	ldr	r3, [pc, #32]	; (8000df8 <systickInit+0x28>)
 8000dd6:	2200      	movs	r2, #0
 8000dd8:	601a      	str	r2, [r3, #0]
 8000dda:	4b07      	ldr	r3, [pc, #28]	; (8000df8 <systickInit+0x28>)
 8000ddc:	f06f 427f 	mvn.w	r2, #4278190080	; 0xff000000
 8000de0:	605a      	str	r2, [r3, #4]
 8000de2:	4b05      	ldr	r3, [pc, #20]	; (8000df8 <systickInit+0x28>)
 8000de4:	2200      	movs	r2, #0
 8000de6:	609a      	str	r2, [r3, #8]
 8000de8:	4b03      	ldr	r3, [pc, #12]	; (8000df8 <systickInit+0x28>)
 8000dea:	2205      	movs	r2, #5
 8000dec:	601a      	str	r2, [r3, #0]
 8000dee:	bf00      	nop
 8000df0:	46bd      	mov	sp, r7
 8000df2:	bc80      	pop	{r7}
 8000df4:	4770      	bx	lr
 8000df6:	bf00      	nop
 8000df8:	e000e010 	and	lr, r0, r0, lsl r0

08000dfc <Delaymicro>:
 8000dfc:	b480      	push	{r7}
 8000dfe:	af00      	add	r7, sp, #0
 8000e00:	4b08      	ldr	r3, [pc, #32]	; (8000e24 <Delaymicro+0x28>)
 8000e02:	2248      	movs	r2, #72	; 0x48
 8000e04:	605a      	str	r2, [r3, #4]
 8000e06:	4b07      	ldr	r3, [pc, #28]	; (8000e24 <Delaymicro+0x28>)
 8000e08:	2200      	movs	r2, #0
 8000e0a:	609a      	str	r2, [r3, #8]
 8000e0c:	bf00      	nop
 8000e0e:	4b05      	ldr	r3, [pc, #20]	; (8000e24 <Delaymicro+0x28>)
 8000e10:	681b      	ldr	r3, [r3, #0]
 8000e12:	f403 3380 	and.w	r3, r3, #65536	; 0x10000
 8000e16:	2b00      	cmp	r3, #0
 8000e18:	d0f9      	beq.n	8000e0e <Delaymicro+0x12>
 8000e1a:	bf00      	nop
 8000e1c:	bf00      	nop
 8000e1e:	46bd      	mov	sp, r7
 8000e20:	bc80      	pop	{r7}
 8000e22:	4770      	bx	lr
 8000e24:	e000e010 	and	lr, r0, r0, lsl r0

08000e28 <DelayUs>:
 8000e28:	b580      	push	{r7, lr}
 8000e2a:	b082      	sub	sp, #8
 8000e2c:	af00      	add	r7, sp, #0
 8000e2e:	6078      	str	r0, [r7, #4]
 8000e30:	e004      	b.n	8000e3c <DelayUs+0x14>
 8000e32:	f7ff ffe3 	bl	8000dfc <Delaymicro>
 8000e36:	687b      	ldr	r3, [r7, #4]
 8000e38:	3b01      	subs	r3, #1
 8000e3a:	607b      	str	r3, [r7, #4]
 8000e3c:	687b      	ldr	r3, [r7, #4]
 8000e3e:	2b00      	cmp	r3, #0
 8000e40:	d1f7      	bne.n	8000e32 <DelayUs+0xa>
 8000e42:	bf00      	nop
 8000e44:	bf00      	nop
 8000e46:	3708      	adds	r7, #8
 8000e48:	46bd      	mov	sp, r7
 8000e4a:	bd80      	pop	{r7, pc}

08000e4c <DelayMillis>:
 8000e4c:	b480      	push	{r7}
 8000e4e:	af00      	add	r7, sp, #0
 8000e50:	4b08      	ldr	r3, [pc, #32]	; (8000e74 <DelayMillis+0x28>)
 8000e52:	4a09      	ldr	r2, [pc, #36]	; (8000e78 <DelayMillis+0x2c>)
 8000e54:	605a      	str	r2, [r3, #4]
 8000e56:	4b07      	ldr	r3, [pc, #28]	; (8000e74 <DelayMillis+0x28>)
 8000e58:	2200      	movs	r2, #0
 8000e5a:	609a      	str	r2, [r3, #8]
 8000e5c:	bf00      	nop
 8000e5e:	4b05      	ldr	r3, [pc, #20]	; (8000e74 <DelayMillis+0x28>)
 8000e60:	681b      	ldr	r3, [r3, #0]
 8000e62:	f403 3380 	and.w	r3, r3, #65536	; 0x10000
 8000e66:	2b00      	cmp	r3, #0
 8000e68:	d0f9      	beq.n	8000e5e <DelayMillis+0x12>
 8000e6a:	bf00      	nop
 8000e6c:	bf00      	nop
 8000e6e:	46bd      	mov	sp, r7
 8000e70:	bc80      	pop	{r7}
 8000e72:	4770      	bx	lr
 8000e74:	e000e010 	and	lr, r0, r0, lsl r0
 8000e78:	00011940 	andeq	r1, r1, r0, asr #18

08000e7c <DelayMs>:
 8000e7c:	b580      	push	{r7, lr}
 8000e7e:	b082      	sub	sp, #8
 8000e80:	af00      	add	r7, sp, #0
 8000e82:	6078      	str	r0, [r7, #4]
 8000e84:	e004      	b.n	8000e90 <DelayMs+0x14>
 8000e86:	f7ff ffe1 	bl	8000e4c <DelayMillis>
 8000e8a:	687b      	ldr	r3, [r7, #4]
 8000e8c:	3b01      	subs	r3, #1
 8000e8e:	607b      	str	r3, [r7, #4]
 8000e90:	687b      	ldr	r3, [r7, #4]
 8000e92:	2b00      	cmp	r3, #0
 8000e94:	d1f7      	bne.n	8000e86 <DelayMs+0xa>
 8000e96:	bf00      	nop
 8000e98:	bf00      	nop
 8000e9a:	3708      	adds	r7, #8
 8000e9c:	46bd      	mov	sp, r7
 8000e9e:	bd80      	pop	{r7, pc}

08000ea0 <systickIntStart>:
 8000ea0:	b580      	push	{r7, lr}
 8000ea2:	af00      	add	r7, sp, #0
 8000ea4:	f7ff ff76 	bl	8000d94 <__disable_irq>
 8000ea8:	4b09      	ldr	r3, [pc, #36]	; (8000ed0 <systickIntStart+0x30>)
 8000eaa:	2200      	movs	r2, #0
 8000eac:	601a      	str	r2, [r3, #0]
 8000eae:	4b08      	ldr	r3, [pc, #32]	; (8000ed0 <systickIntStart+0x30>)
 8000eb0:	4a08      	ldr	r2, [pc, #32]	; (8000ed4 <systickIntStart+0x34>)
 8000eb2:	605a      	str	r2, [r3, #4]
 8000eb4:	4b06      	ldr	r3, [pc, #24]	; (8000ed0 <systickIntStart+0x30>)
 8000eb6:	2200      	movs	r2, #0
 8000eb8:	609a      	str	r2, [r3, #8]
 8000eba:	4b05      	ldr	r3, [pc, #20]	; (8000ed0 <systickIntStart+0x30>)
 8000ebc:	681b      	ldr	r3, [r3, #0]
 8000ebe:	4a04      	ldr	r2, [pc, #16]	; (8000ed0 <systickIntStart+0x30>)
 8000ec0:	f043 0307 	orr.w	r3, r3, #7
 8000ec4:	6013      	str	r3, [r2, #0]
 8000ec6:	f7ff ff75 	bl	8000db4 <__enable_irq>
 8000eca:	bf00      	nop
 8000ecc:	bd80      	pop	{r7, pc}
 8000ece:	bf00      	nop
 8000ed0:	e000e010 	and	lr, r0, r0, lsl r0
 8000ed4:	006ddcff 	strdeq	sp, [sp], #-207	; 0xffffff31	; <UNPREDICTABLE>

08000ed8 <systickInt>:
 8000ed8:	b580      	push	{r7, lr}
 8000eda:	b084      	sub	sp, #16
 8000edc:	af00      	add	r7, sp, #0
 8000ede:	60f8      	str	r0, [r7, #12]
 8000ee0:	60b9      	str	r1, [r7, #8]
 8000ee2:	607a      	str	r2, [r7, #4]
 8000ee4:	68fb      	ldr	r3, [r7, #12]
 8000ee6:	881b      	ldrh	r3, [r3, #0]
 8000ee8:	2b00      	cmp	r3, #0
 8000eea:	d019      	beq.n	8000f20 <systickInt+0x48>
 8000eec:	68fb      	ldr	r3, [r7, #12]
 8000eee:	330c      	adds	r3, #12
 8000ef0:	881b      	ldrh	r3, [r3, #0]
 8000ef2:	2b00      	cmp	r3, #0
 8000ef4:	d10d      	bne.n	8000f12 <systickInt+0x3a>
 8000ef6:	68fb      	ldr	r3, [r7, #12]
 8000ef8:	2200      	movs	r2, #0
 8000efa:	801a      	strh	r2, [r3, #0]
 8000efc:	68fb      	ldr	r3, [r7, #12]
 8000efe:	3302      	adds	r3, #2
 8000f00:	2201      	movs	r2, #1
 8000f02:	801a      	strh	r2, [r3, #0]
 8000f04:	68fb      	ldr	r3, [r7, #12]
 8000f06:	330a      	adds	r3, #10
 8000f08:	2200      	movs	r2, #0
 8000f0a:	801a      	strh	r2, [r3, #0]
 8000f0c:	f7ff ff60 	bl	8000dd0 <systickInit>
 8000f10:	e041      	b.n	8000f96 <systickInt+0xbe>
 8000f12:	68fb      	ldr	r3, [r7, #12]
 8000f14:	330c      	adds	r3, #12
 8000f16:	881a      	ldrh	r2, [r3, #0]
 8000f18:	3a01      	subs	r2, #1
 8000f1a:	b292      	uxth	r2, r2
 8000f1c:	801a      	strh	r2, [r3, #0]
 8000f1e:	e03a      	b.n	8000f96 <systickInt+0xbe>
 8000f20:	68bb      	ldr	r3, [r7, #8]
 8000f22:	881b      	ldrh	r3, [r3, #0]
 8000f24:	2b00      	cmp	r3, #0
 8000f26:	d019      	beq.n	8000f5c <systickInt+0x84>
 8000f28:	68bb      	ldr	r3, [r7, #8]
 8000f2a:	330c      	adds	r3, #12
 8000f2c:	881b      	ldrh	r3, [r3, #0]
 8000f2e:	2b00      	cmp	r3, #0
 8000f30:	d10d      	bne.n	8000f4e <systickInt+0x76>
 8000f32:	68bb      	ldr	r3, [r7, #8]
 8000f34:	2200      	movs	r2, #0
 8000f36:	801a      	strh	r2, [r3, #0]
 8000f38:	68bb      	ldr	r3, [r7, #8]
 8000f3a:	3302      	adds	r3, #2
 8000f3c:	2201      	movs	r2, #1
 8000f3e:	801a      	strh	r2, [r3, #0]
 8000f40:	68bb      	ldr	r3, [r7, #8]
 8000f42:	330a      	adds	r3, #10
 8000f44:	2200      	movs	r2, #0
 8000f46:	801a      	strh	r2, [r3, #0]
 8000f48:	f7ff ff42 	bl	8000dd0 <systickInit>
 8000f4c:	e023      	b.n	8000f96 <systickInt+0xbe>
 8000f4e:	68bb      	ldr	r3, [r7, #8]
 8000f50:	330c      	adds	r3, #12
 8000f52:	881a      	ldrh	r2, [r3, #0]
 8000f54:	3a01      	subs	r2, #1
 8000f56:	b292      	uxth	r2, r2
 8000f58:	801a      	strh	r2, [r3, #0]
 8000f5a:	e01c      	b.n	8000f96 <systickInt+0xbe>
 8000f5c:	687b      	ldr	r3, [r7, #4]
 8000f5e:	881b      	ldrh	r3, [r3, #0]
 8000f60:	2b00      	cmp	r3, #0
 8000f62:	d018      	beq.n	8000f96 <systickInt+0xbe>
 8000f64:	687b      	ldr	r3, [r7, #4]
 8000f66:	330c      	adds	r3, #12
 8000f68:	881b      	ldrh	r3, [r3, #0]
 8000f6a:	2b00      	cmp	r3, #0
 8000f6c:	d10d      	bne.n	8000f8a <systickInt+0xb2>
 8000f6e:	687b      	ldr	r3, [r7, #4]
 8000f70:	2200      	movs	r2, #0
 8000f72:	801a      	strh	r2, [r3, #0]
 8000f74:	687b      	ldr	r3, [r7, #4]
 8000f76:	3302      	adds	r3, #2
 8000f78:	2201      	movs	r2, #1
 8000f7a:	801a      	strh	r2, [r3, #0]
 8000f7c:	687b      	ldr	r3, [r7, #4]
 8000f7e:	330a      	adds	r3, #10
 8000f80:	2200      	movs	r2, #0
 8000f82:	801a      	strh	r2, [r3, #0]
 8000f84:	f7ff ff24 	bl	8000dd0 <systickInit>
 8000f88:	e005      	b.n	8000f96 <systickInt+0xbe>
 8000f8a:	687b      	ldr	r3, [r7, #4]
 8000f8c:	330c      	adds	r3, #12
 8000f8e:	881a      	ldrh	r2, [r3, #0]
 8000f90:	3a01      	subs	r2, #1
 8000f92:	b292      	uxth	r2, r2
 8000f94:	801a      	strh	r2, [r3, #0]
 8000f96:	bf00      	nop
 8000f98:	3710      	adds	r7, #16
 8000f9a:	46bd      	mov	sp, r7
 8000f9c:	bd80      	pop	{r7, pc}
 8000f9e:	bf00      	nop

08000fa0 <Reset_Handler>:
 8000fa0:	b580      	push	{r7, lr}
 8000fa2:	b082      	sub	sp, #8
 8000fa4:	af00      	add	r7, sp, #0
 8000fa6:	4b11      	ldr	r3, [pc, #68]	; (8000fec <Reset_Handler+0x4c>)
 8000fa8:	607b      	str	r3, [r7, #4]
 8000faa:	4b11      	ldr	r3, [pc, #68]	; (8000ff0 <Reset_Handler+0x50>)
 8000fac:	603b      	str	r3, [r7, #0]
 8000fae:	e007      	b.n	8000fc0 <Reset_Handler+0x20>
 8000fb0:	687a      	ldr	r2, [r7, #4]
 8000fb2:	1d13      	adds	r3, r2, #4
 8000fb4:	607b      	str	r3, [r7, #4]
 8000fb6:	683b      	ldr	r3, [r7, #0]
 8000fb8:	1d19      	adds	r1, r3, #4
 8000fba:	6039      	str	r1, [r7, #0]
 8000fbc:	6812      	ldr	r2, [r2, #0]
 8000fbe:	601a      	str	r2, [r3, #0]
 8000fc0:	683b      	ldr	r3, [r7, #0]
 8000fc2:	4a0c      	ldr	r2, [pc, #48]	; (8000ff4 <Reset_Handler+0x54>)
 8000fc4:	4293      	cmp	r3, r2
 8000fc6:	d3f3      	bcc.n	8000fb0 <Reset_Handler+0x10>
 8000fc8:	4b0b      	ldr	r3, [pc, #44]	; (8000ff8 <Reset_Handler+0x58>)
 8000fca:	603b      	str	r3, [r7, #0]
 8000fcc:	e004      	b.n	8000fd8 <Reset_Handler+0x38>
 8000fce:	683b      	ldr	r3, [r7, #0]
 8000fd0:	1d1a      	adds	r2, r3, #4
 8000fd2:	603a      	str	r2, [r7, #0]
 8000fd4:	2200      	movs	r2, #0
 8000fd6:	601a      	str	r2, [r3, #0]
 8000fd8:	683b      	ldr	r3, [r7, #0]
 8000fda:	4a08      	ldr	r2, [pc, #32]	; (8000ffc <Reset_Handler+0x5c>)
 8000fdc:	4293      	cmp	r3, r2
 8000fde:	d3f6      	bcc.n	8000fce <Reset_Handler+0x2e>
 8000fe0:	f7ff f882 	bl	80000e8 <main>
 8000fe4:	bf00      	nop
 8000fe6:	3708      	adds	r7, #8
 8000fe8:	46bd      	mov	sp, r7
 8000fea:	bd80      	pop	{r7, pc}
 8000fec:	08001720 	stmdaeq	r0, {r5, r8, r9, sl, ip}
 8000ff0:	20000000 	andcs	r0, r0, r0
 8000ff4:	2000242e 	andcs	r2, r0, lr, lsr #8
 8000ff8:	20002430 	andcs	r2, r0, r0, lsr r4
 8000ffc:	20002830 	andcs	r2, r0, r0, lsr r8

08001000 <SysTick_Handler>:
 8001000:	b580      	push	{r7, lr}
 8001002:	af00      	add	r7, sp, #0
 8001004:	210d      	movs	r1, #13
 8001006:	2003      	movs	r0, #3
 8001008:	f7ff fa46 	bl	8000498 <toggleGPIO>
 800100c:	bf00      	nop
 800100e:	bd80      	pop	{r7, pc}

08001010 <RTC_Handler>:
 8001010:	b480      	push	{r7}
 8001012:	af00      	add	r7, sp, #0
 8001014:	4b07      	ldr	r3, [pc, #28]	; (8001034 <RTC_Handler+0x24>)
 8001016:	889b      	ldrh	r3, [r3, #4]
 8001018:	b29b      	uxth	r3, r3
 800101a:	4a06      	ldr	r2, [pc, #24]	; (8001034 <RTC_Handler+0x24>)
 800101c:	f023 0301 	bic.w	r3, r3, #1
 8001020:	b29b      	uxth	r3, r3
 8001022:	8093      	strh	r3, [r2, #4]
 8001024:	4b04      	ldr	r3, [pc, #16]	; (8001038 <RTC_Handler+0x28>)
 8001026:	2208      	movs	r2, #8
 8001028:	f8c3 2180 	str.w	r2, [r3, #384]	; 0x180
 800102c:	bf00      	nop
 800102e:	46bd      	mov	sp, r7
 8001030:	bc80      	pop	{r7}
 8001032:	4770      	bx	lr
 8001034:	40002800 	andmi	r2, r0, r0, lsl #16
 8001038:	e000e100 	and	lr, r0, r0, lsl #2

0800103c <RTC_Alarm_Handler>:
 800103c:	b580      	push	{r7, lr}
 800103e:	af00      	add	r7, sp, #0
 8001040:	210d      	movs	r1, #13
 8001042:	2003      	movs	r0, #3
 8001044:	f7ff fa28 	bl	8000498 <toggleGPIO>
 8001048:	4b07      	ldr	r3, [pc, #28]	; (8001068 <RTC_Alarm_Handler+0x2c>)
 800104a:	695b      	ldr	r3, [r3, #20]
 800104c:	4a06      	ldr	r2, [pc, #24]	; (8001068 <RTC_Alarm_Handler+0x2c>)
 800104e:	f443 3300 	orr.w	r3, r3, #131072	; 0x20000
 8001052:	6153      	str	r3, [r2, #20]
 8001054:	4b05      	ldr	r3, [pc, #20]	; (800106c <RTC_Alarm_Handler+0x30>)
 8001056:	889b      	ldrh	r3, [r3, #4]
 8001058:	b29b      	uxth	r3, r3
 800105a:	4a04      	ldr	r2, [pc, #16]	; (800106c <RTC_Alarm_Handler+0x30>)
 800105c:	f023 0302 	bic.w	r3, r3, #2
 8001060:	b29b      	uxth	r3, r3
 8001062:	8093      	strh	r3, [r2, #4]
 8001064:	bf00      	nop
 8001066:	bd80      	pop	{r7, pc}
 8001068:	40010400 	andmi	r0, r1, r0, lsl #8
 800106c:	40002800 	andmi	r2, r0, r0, lsl #16

08001070 <initRTC>:
 8001070:	b480      	push	{r7}
 8001072:	af00      	add	r7, sp, #0
 8001074:	4b31      	ldr	r3, [pc, #196]	; (800113c <initRTC+0xcc>)
 8001076:	69db      	ldr	r3, [r3, #28]
 8001078:	4a30      	ldr	r2, [pc, #192]	; (800113c <initRTC+0xcc>)
 800107a:	f043 53c0 	orr.w	r3, r3, #402653184	; 0x18000000
 800107e:	61d3      	str	r3, [r2, #28]
 8001080:	4b2f      	ldr	r3, [pc, #188]	; (8001140 <initRTC+0xd0>)
 8001082:	681b      	ldr	r3, [r3, #0]
 8001084:	4a2e      	ldr	r2, [pc, #184]	; (8001140 <initRTC+0xd0>)
 8001086:	f443 7380 	orr.w	r3, r3, #256	; 0x100
 800108a:	6013      	str	r3, [r2, #0]
 800108c:	4b2b      	ldr	r3, [pc, #172]	; (800113c <initRTC+0xcc>)
 800108e:	6a1b      	ldr	r3, [r3, #32]
 8001090:	4a2a      	ldr	r2, [pc, #168]	; (800113c <initRTC+0xcc>)
 8001092:	f043 0301 	orr.w	r3, r3, #1
 8001096:	6213      	str	r3, [r2, #32]
 8001098:	bf00      	nop
 800109a:	4b28      	ldr	r3, [pc, #160]	; (800113c <initRTC+0xcc>)
 800109c:	6a1b      	ldr	r3, [r3, #32]
 800109e:	f003 0302 	and.w	r3, r3, #2
 80010a2:	2b00      	cmp	r3, #0
 80010a4:	d0f9      	beq.n	800109a <initRTC+0x2a>
 80010a6:	4b25      	ldr	r3, [pc, #148]	; (800113c <initRTC+0xcc>)
 80010a8:	6a1b      	ldr	r3, [r3, #32]
 80010aa:	4a24      	ldr	r2, [pc, #144]	; (800113c <initRTC+0xcc>)
 80010ac:	f443 4301 	orr.w	r3, r3, #33024	; 0x8100
 80010b0:	6213      	str	r3, [r2, #32]
 80010b2:	bf00      	nop
 80010b4:	4b23      	ldr	r3, [pc, #140]	; (8001144 <initRTC+0xd4>)
 80010b6:	889b      	ldrh	r3, [r3, #4]
 80010b8:	b29b      	uxth	r3, r3
 80010ba:	f003 0320 	and.w	r3, r3, #32
 80010be:	2b00      	cmp	r3, #0
 80010c0:	d0f8      	beq.n	80010b4 <initRTC+0x44>
 80010c2:	4b20      	ldr	r3, [pc, #128]	; (8001144 <initRTC+0xd4>)
 80010c4:	889b      	ldrh	r3, [r3, #4]
 80010c6:	b29b      	uxth	r3, r3
 80010c8:	4a1e      	ldr	r2, [pc, #120]	; (8001144 <initRTC+0xd4>)
 80010ca:	f043 0310 	orr.w	r3, r3, #16
 80010ce:	b29b      	uxth	r3, r3
 80010d0:	8093      	strh	r3, [r2, #4]
 80010d2:	4b1c      	ldr	r3, [pc, #112]	; (8001144 <initRTC+0xd4>)
 80010d4:	889b      	ldrh	r3, [r3, #4]
 80010d6:	b29b      	uxth	r3, r3
 80010d8:	4a1a      	ldr	r2, [pc, #104]	; (8001144 <initRTC+0xd4>)
 80010da:	f023 0301 	bic.w	r3, r3, #1
 80010de:	b29b      	uxth	r3, r3
 80010e0:	8093      	strh	r3, [r2, #4]
 80010e2:	4b18      	ldr	r3, [pc, #96]	; (8001144 <initRTC+0xd4>)
 80010e4:	891b      	ldrh	r3, [r3, #8]
 80010e6:	4b17      	ldr	r3, [pc, #92]	; (8001144 <initRTC+0xd4>)
 80010e8:	2200      	movs	r2, #0
 80010ea:	811a      	strh	r2, [r3, #8]
 80010ec:	4b15      	ldr	r3, [pc, #84]	; (8001144 <initRTC+0xd4>)
 80010ee:	899b      	ldrh	r3, [r3, #12]
 80010f0:	b29b      	uxth	r3, r3
 80010f2:	4a14      	ldr	r2, [pc, #80]	; (8001144 <initRTC+0xd4>)
 80010f4:	ea6f 33d3 	mvn.w	r3, r3, lsr #15
 80010f8:	ea6f 33c3 	mvn.w	r3, r3, lsl #15
 80010fc:	b29b      	uxth	r3, r3
 80010fe:	8193      	strh	r3, [r2, #12]
 8001100:	4b10      	ldr	r3, [pc, #64]	; (8001144 <initRTC+0xd4>)
 8001102:	881b      	ldrh	r3, [r3, #0]
 8001104:	b29b      	uxth	r3, r3
 8001106:	4a0f      	ldr	r2, [pc, #60]	; (8001144 <initRTC+0xd4>)
 8001108:	f043 0301 	orr.w	r3, r3, #1
 800110c:	b29b      	uxth	r3, r3
 800110e:	8013      	strh	r3, [r2, #0]
 8001110:	4b0c      	ldr	r3, [pc, #48]	; (8001144 <initRTC+0xd4>)
 8001112:	889b      	ldrh	r3, [r3, #4]
 8001114:	b29b      	uxth	r3, r3
 8001116:	4a0b      	ldr	r2, [pc, #44]	; (8001144 <initRTC+0xd4>)
 8001118:	f023 0310 	bic.w	r3, r3, #16
 800111c:	b29b      	uxth	r3, r3
 800111e:	8093      	strh	r3, [r2, #4]
 8001120:	bf00      	nop
 8001122:	4b08      	ldr	r3, [pc, #32]	; (8001144 <initRTC+0xd4>)
 8001124:	889b      	ldrh	r3, [r3, #4]
 8001126:	b29b      	uxth	r3, r3
 8001128:	f003 0320 	and.w	r3, r3, #32
 800112c:	2b00      	cmp	r3, #0
 800112e:	d0f8      	beq.n	8001122 <initRTC+0xb2>
 8001130:	bf00      	nop
 8001132:	bf00      	nop
 8001134:	46bd      	mov	sp, r7
 8001136:	bc80      	pop	{r7}
 8001138:	4770      	bx	lr
 800113a:	bf00      	nop
 800113c:	40021000 	andmi	r1, r2, r0
 8001140:	40007000 	andmi	r7, r0, r0
 8001144:	40002800 	andmi	r2, r0, r0, lsl #16

08001148 <initAlarm>:
 8001148:	b480      	push	{r7}
 800114a:	af00      	add	r7, sp, #0
 800114c:	4b0b      	ldr	r3, [pc, #44]	; (800117c <initAlarm+0x34>)
 800114e:	689b      	ldr	r3, [r3, #8]
 8001150:	4a0a      	ldr	r2, [pc, #40]	; (800117c <initAlarm+0x34>)
 8001152:	f443 3300 	orr.w	r3, r3, #131072	; 0x20000
 8001156:	6093      	str	r3, [r2, #8]
 8001158:	4b08      	ldr	r3, [pc, #32]	; (800117c <initAlarm+0x34>)
 800115a:	68db      	ldr	r3, [r3, #12]
 800115c:	4a07      	ldr	r2, [pc, #28]	; (800117c <initAlarm+0x34>)
 800115e:	f023 437f 	bic.w	r3, r3, #4278190080	; 0xff000000
 8001162:	f423 0372 	bic.w	r3, r3, #15859712	; 0xf20000
 8001166:	60d3      	str	r3, [r2, #12]
 8001168:	4b04      	ldr	r3, [pc, #16]	; (800117c <initAlarm+0x34>)
 800116a:	681b      	ldr	r3, [r3, #0]
 800116c:	4a03      	ldr	r2, [pc, #12]	; (800117c <initAlarm+0x34>)
 800116e:	f443 3300 	orr.w	r3, r3, #131072	; 0x20000
 8001172:	6013      	str	r3, [r2, #0]
 8001174:	bf00      	nop
 8001176:	46bd      	mov	sp, r7
 8001178:	bc80      	pop	{r7}
 800117a:	4770      	bx	lr
 800117c:	40010400 	andmi	r0, r1, r0, lsl #8

08001180 <ASCII>:
 8001180:	00000000 	andeq	r0, r0, r0
 8001184:	5f000000 	svcpl	0x00000000
 8001188:	07000000 	streq	r0, [r0, -r0]
 800118c:	14000700 	strne	r0, [r0], #-1792	; 0xfffff900
 8001190:	147f147f 	ldrbtne	r1, [pc], #-1151	; 8001198 <ASCII+0x18>
 8001194:	2a7f2a24 	bcs	9fcba2c <_etext+0x1fca30c>
 8001198:	08132312 	ldmdaeq	r3, {r1, r4, r8, r9, sp}
 800119c:	49366264 	ldmdbmi	r6!, {r2, r5, r6, r9, sp, lr}
 80011a0:	00502255 	subseq	r2, r0, r5, asr r2
 80011a4:	00000305 	andeq	r0, r0, r5, lsl #6
 80011a8:	41221c00 			; <UNDEFINED> instruction: 0x41221c00
 80011ac:	22410000 	subcs	r0, r1, #0
 80011b0:	0814001c 	ldmdaeq	r4, {r2, r3, r4}
 80011b4:	0814083e 	ldmdaeq	r4, {r1, r2, r3, r4, r5, fp}
 80011b8:	08083e08 	stmdaeq	r8, {r3, r9, sl, fp, ip, sp}
 80011bc:	00305000 	eorseq	r5, r0, r0
 80011c0:	08080800 	stmdaeq	r8, {fp}
 80011c4:	60000808 	andvs	r0, r0, r8, lsl #16
 80011c8:	20000060 	andcs	r0, r0, r0, rrx
 80011cc:	02040810 	andeq	r0, r4, #16, 16	; 0x100000
 80011d0:	4549513e 	strbmi	r5, [r9, #-318]	; 0xfffffec2
 80011d4:	7f42003e 	svcvc	0x0042003e
 80011d8:	61420040 	cmpvs	r2, r0, asr #32
 80011dc:	21464951 	cmpcs	r6, r1, asr r9
 80011e0:	314b4541 	cmpcc	fp, r1, asr #10
 80011e4:	7f121418 	svcvc	0x00121418
 80011e8:	45452710 	strbmi	r2, [r5, #-1808]	; 0xfffff8f0
 80011ec:	4a3c3945 	bmi	8f0f708 <_etext+0xf0dfe8>
 80011f0:	01304949 	teqeq	r0, r9, asr #18
 80011f4:	03050971 	movweq	r0, #22897	; 0x5971
 80011f8:	49494936 	stmdbmi	r9, {r1, r2, r4, r5, r8, fp, lr}^
 80011fc:	49490636 	stmdbmi	r9, {r1, r2, r4, r5, r9, sl}^
 8001200:	36001e29 	strcc	r1, [r0], -r9, lsr #28
 8001204:	00000036 	andeq	r0, r0, r6, lsr r0
 8001208:	00003656 	andeq	r3, r0, r6, asr r6
 800120c:	41221408 			; <UNDEFINED> instruction: 0x41221408
 8001210:	14141400 	ldrne	r1, [r4], #-1024	; 0xfffffc00
 8001214:	41001414 	tstmi	r0, r4, lsl r4
 8001218:	02081422 	andeq	r1, r8, #570425344	; 0x22000000
 800121c:	06095101 	streq	r5, [r9], -r1, lsl #2
 8001220:	41794932 	cmnmi	r9, r2, lsr r9
 8001224:	11117e3e 	tstne	r1, lr, lsr lr
 8001228:	497f7e11 	ldmdbmi	pc!, {r0, r4, r9, sl, fp, ip, sp, lr}^	; <UNPREDICTABLE>
 800122c:	3e364949 	vsubcc.f16	s8, s12, s18	; <UNPREDICTABLE>
 8001230:	22414141 	subcs	r4, r1, #1073741840	; 0x40000010
 8001234:	2241417f 	subcs	r4, r1, #-1073741793	; 0xc000001f
 8001238:	49497f1c 	stmdbmi	r9, {r2, r3, r4, r8, r9, sl, fp, ip, sp, lr}^
 800123c:	097f4149 	ldmdbeq	pc!, {r0, r3, r6, r8, lr}^	; <UNPREDICTABLE>
 8001240:	3e010909 	vmlacc.f16	s0, s2, s18	; <UNPREDICTABLE>
 8001244:	7a494941 	bvc	9253750 <_etext+0x1252030>
 8001248:	0808087f 	stmdaeq	r8, {r0, r1, r2, r3, r4, r5, r6, fp}
 800124c:	7f41007f 	svcvc	0x0041007f
 8001250:	40200041 	eormi	r0, r0, r1, asr #32
 8001254:	7f013f41 	svcvc	0x00013f41
 8001258:	41221408 			; <UNDEFINED> instruction: 0x41221408
 800125c:	4040407f 	submi	r4, r0, pc, ror r0
 8001260:	0c027f40 	stceq	15, cr7, [r2], {64}	; 0x40
 8001264:	047f7f02 	ldrbteq	r7, [pc], #-3842	; 800126c <ASCII+0xec>
 8001268:	3e7f1008 	cdpcc	0, 7, cr1, cr15, cr8, {0}
 800126c:	3e414141 	dvfccsm	f4, f1, f1
 8001270:	0909097f 	stmdbeq	r9, {r0, r1, r2, r3, r4, r5, r6, r8, fp}
 8001274:	51413e06 	cmppl	r1, r6, lsl #28
 8001278:	097f5e21 	ldmdbeq	pc!, {r0, r5, r9, sl, fp, ip, lr}^	; <UNPREDICTABLE>
 800127c:	46462919 			; <UNDEFINED> instruction: 0x46462919
 8001280:	31494949 	cmpcc	r9, r9, asr #18
 8001284:	017f0101 	cmneq	pc, r1, lsl #2
 8001288:	40403f01 	submi	r3, r0, r1, lsl #30
 800128c:	201f3f40 	andscs	r3, pc, r0, asr #30
 8001290:	3f1f2040 	svccc	0x001f2040
 8001294:	3f403840 	svccc	0x00403840
 8001298:	14081463 	strne	r1, [r8], #-1123	; 0xfffffb9d
 800129c:	70080763 	andvc	r0, r8, r3, ror #14
 80012a0:	51610708 	cmnpl	r1, r8, lsl #14
 80012a4:	00434549 	subeq	r4, r3, r9, asr #10
 80012a8:	0041417f 	subeq	r4, r1, pc, ror r1
 80012ac:	10080402 	andne	r0, r8, r2, lsl #8
 80012b0:	41410020 	cmpmi	r1, r0, lsr #32
 80012b4:	0204007f 	andeq	r0, r4, #127	; 0x7f
 80012b8:	40040201 	andmi	r0, r4, r1, lsl #4
 80012bc:	40404040 	submi	r4, r0, r0, asr #32
 80012c0:	04020100 	streq	r0, [r2], #-256	; 0xffffff00
 80012c4:	54542000 	ldrbpl	r2, [r4], #-0
 80012c8:	487f7854 	ldmdami	pc!, {r2, r4, r6, fp, ip, sp, lr}^	; <UNPREDICTABLE>
 80012cc:	38384444 	ldmdacc	r8!, {r2, r6, sl, lr}
 80012d0:	20444444 	subcs	r4, r4, r4, asr #8
 80012d4:	48444438 	stmdami	r4, {r3, r4, r5, sl, lr}^
 80012d8:	5454387f 	ldrbpl	r3, [r4], #-2175	; 0xfffff781
 80012dc:	7e081854 	mcrvc	8, 0, r1, cr8, cr4, {2}
 80012e0:	0c020109 	stfeqs	f0, [r2], {9}
 80012e4:	3e525252 	mrccc	2, 2, r5, cr2, cr2, {2}
 80012e8:	0404087f 	streq	r0, [r4], #-2175	; 0xfffff781
 80012ec:	7d440078 	stclvc	0, cr0, [r4, #-480]	; 0xfffffe20
 80012f0:	40200040 	eormi	r0, r0, r0, asr #32
 80012f4:	7f003d44 	svcvc	0x00003d44
 80012f8:	00442810 	subeq	r2, r4, r0, lsl r8
 80012fc:	407f4100 	rsbsmi	r4, pc, r0, lsl #2
 8001300:	18047c00 	stmdane	r4, {sl, fp, ip, sp, lr}
 8001304:	087c7804 	ldmdaeq	ip!, {r2, fp, ip, sp, lr}^
 8001308:	38780404 	ldmdacc	r8!, {r2, sl}^
 800130c:	38444444 	stmdacc	r4, {r2, r6, sl, lr}^
 8001310:	1414147c 	ldrne	r1, [r4], #-1148	; 0xfffffb84
 8001314:	14140808 	ldrne	r0, [r4], #-2056	; 0xfffff7f8
 8001318:	087c7c18 	ldmdaeq	ip!, {r3, r4, sl, fp, ip, sp, lr}^
 800131c:	48080404 	stmdami	r8, {r2, sl}
 8001320:	20545454 	subscs	r5, r4, r4, asr r4
 8001324:	40443f04 	submi	r3, r4, r4, lsl #30
 8001328:	40403c20 	submi	r3, r0, r0, lsr #24
 800132c:	201c7c20 	andscs	r7, ip, r0, lsr #24
 8001330:	3c1c2040 	ldccc	0, cr2, [ip], {64}	; 0x40
 8001334:	3c403040 	mcrrcc	0, 4, r3, r0, cr0
 8001338:	28102844 	ldmdacs	r0, {r2, r6, fp, sp}
 800133c:	50500c44 	subspl	r0, r0, r4, asr #24
 8001340:	64443c50 	strbvs	r3, [r4], #-3152	; 0xfffff3b0
 8001344:	00444c54 	subeq	r4, r4, r4, asr ip
 8001348:	00413608 	subeq	r3, r1, r8, lsl #12
 800134c:	007f0000 	rsbseq	r0, pc, r0
 8001350:	36410000 	strbcc	r0, [r1], -r0
 8001354:	08100008 	ldmdaeq	r0, {r3}
 8001358:	78081008 	stmdavc	r8, {r3, ip}
 800135c:	78464146 	stmdavc	r6, {r1, r2, r6, r8, lr}^

08001360 <ASCII>:
 8001360:	00000000 	andeq	r0, r0, r0
 8001364:	5f000000 	svcpl	0x00000000
 8001368:	07000000 	streq	r0, [r0, -r0]
 800136c:	14000700 	strne	r0, [r0], #-1792	; 0xfffff900
 8001370:	147f147f 	ldrbtne	r1, [pc], #-1151	; 8001378 <ASCII+0x18>
 8001374:	2a7f2a24 	bcs	9fcbc0c <_etext+0x1fca4ec>
 8001378:	08132312 	ldmdaeq	r3, {r1, r4, r8, r9, sp}
 800137c:	49366264 	ldmdbmi	r6!, {r2, r5, r6, r9, sp, lr}
 8001380:	00502255 	subseq	r2, r0, r5, asr r2
 8001384:	00000305 	andeq	r0, r0, r5, lsl #6
 8001388:	41221c00 			; <UNDEFINED> instruction: 0x41221c00
 800138c:	22410000 	subcs	r0, r1, #0
 8001390:	0814001c 	ldmdaeq	r4, {r2, r3, r4}
 8001394:	0814083e 	ldmdaeq	r4, {r1, r2, r3, r4, r5, fp}
 8001398:	08083e08 	stmdaeq	r8, {r3, r9, sl, fp, ip, sp}
 800139c:	00305000 	eorseq	r5, r0, r0
 80013a0:	08080800 	stmdaeq	r8, {fp}
 80013a4:	60000808 	andvs	r0, r0, r8, lsl #16
 80013a8:	20000060 	andcs	r0, r0, r0, rrx
 80013ac:	02040810 	andeq	r0, r4, #16, 16	; 0x100000
 80013b0:	4549513e 	strbmi	r5, [r9, #-318]	; 0xfffffec2
 80013b4:	7f42003e 	svcvc	0x0042003e
 80013b8:	61420040 	cmpvs	r2, r0, asr #32
 80013bc:	21464951 	cmpcs	r6, r1, asr r9
 80013c0:	314b4541 	cmpcc	fp, r1, asr #10
 80013c4:	7f121418 	svcvc	0x00121418
 80013c8:	45452710 	strbmi	r2, [r5, #-1808]	; 0xfffff8f0
 80013cc:	4a3c3945 	bmi	8f0f8e8 <_etext+0xf0e1c8>
 80013d0:	01304949 	teqeq	r0, r9, asr #18
 80013d4:	03050971 	movweq	r0, #22897	; 0x5971
 80013d8:	49494936 	stmdbmi	r9, {r1, r2, r4, r5, r8, fp, lr}^
 80013dc:	49490636 	stmdbmi	r9, {r1, r2, r4, r5, r9, sl}^
 80013e0:	36001e29 	strcc	r1, [r0], -r9, lsr #28
 80013e4:	00000036 	andeq	r0, r0, r6, lsr r0
 80013e8:	00003656 	andeq	r3, r0, r6, asr r6
 80013ec:	41221408 			; <UNDEFINED> instruction: 0x41221408
 80013f0:	14141400 	ldrne	r1, [r4], #-1024	; 0xfffffc00
 80013f4:	41001414 	tstmi	r0, r4, lsl r4
 80013f8:	02081422 	andeq	r1, r8, #570425344	; 0x22000000
 80013fc:	06095101 	streq	r5, [r9], -r1, lsl #2
 8001400:	41794932 	cmnmi	r9, r2, lsr r9
 8001404:	11117e3e 	tstne	r1, lr, lsr lr
 8001408:	497f7e11 	ldmdbmi	pc!, {r0, r4, r9, sl, fp, ip, sp, lr}^	; <UNPREDICTABLE>
 800140c:	3e364949 	vsubcc.f16	s8, s12, s18	; <UNPREDICTABLE>
 8001410:	22414141 	subcs	r4, r1, #1073741840	; 0x40000010
 8001414:	2241417f 	subcs	r4, r1, #-1073741793	; 0xc000001f
 8001418:	49497f1c 	stmdbmi	r9, {r2, r3, r4, r8, r9, sl, fp, ip, sp, lr}^
 800141c:	097f4149 	ldmdbeq	pc!, {r0, r3, r6, r8, lr}^	; <UNPREDICTABLE>
 8001420:	3e010909 	vmlacc.f16	s0, s2, s18	; <UNPREDICTABLE>
 8001424:	7a494941 	bvc	9253930 <_etext+0x1252210>
 8001428:	0808087f 	stmdaeq	r8, {r0, r1, r2, r3, r4, r5, r6, fp}
 800142c:	7f41007f 	svcvc	0x0041007f
 8001430:	40200041 	eormi	r0, r0, r1, asr #32
 8001434:	7f013f41 	svcvc	0x00013f41
 8001438:	41221408 			; <UNDEFINED> instruction: 0x41221408
 800143c:	4040407f 	submi	r4, r0, pc, ror r0
 8001440:	0c027f40 	stceq	15, cr7, [r2], {64}	; 0x40
 8001444:	047f7f02 	ldrbteq	r7, [pc], #-3842	; 800144c <ASCII+0xec>
 8001448:	3e7f1008 	cdpcc	0, 7, cr1, cr15, cr8, {0}
 800144c:	3e414141 	dvfccsm	f4, f1, f1
 8001450:	0909097f 	stmdbeq	r9, {r0, r1, r2, r3, r4, r5, r6, r8, fp}
 8001454:	51413e06 	cmppl	r1, r6, lsl #28
 8001458:	097f5e21 	ldmdbeq	pc!, {r0, r5, r9, sl, fp, ip, lr}^	; <UNPREDICTABLE>
 800145c:	46462919 			; <UNDEFINED> instruction: 0x46462919
 8001460:	31494949 	cmpcc	r9, r9, asr #18
 8001464:	017f0101 	cmneq	pc, r1, lsl #2
 8001468:	40403f01 	submi	r3, r0, r1, lsl #30
 800146c:	201f3f40 	andscs	r3, pc, r0, asr #30
 8001470:	3f1f2040 	svccc	0x001f2040
 8001474:	3f403840 	svccc	0x00403840
 8001478:	14081463 	strne	r1, [r8], #-1123	; 0xfffffb9d
 800147c:	70080763 	andvc	r0, r8, r3, ror #14
 8001480:	51610708 	cmnpl	r1, r8, lsl #14
 8001484:	00434549 	subeq	r4, r3, r9, asr #10
 8001488:	0041417f 	subeq	r4, r1, pc, ror r1
 800148c:	10080402 	andne	r0, r8, r2, lsl #8
 8001490:	41410020 	cmpmi	r1, r0, lsr #32
 8001494:	0204007f 	andeq	r0, r4, #127	; 0x7f
 8001498:	40040201 	andmi	r0, r4, r1, lsl #4
 800149c:	40404040 	submi	r4, r0, r0, asr #32
 80014a0:	04020100 	streq	r0, [r2], #-256	; 0xffffff00
 80014a4:	54542000 	ldrbpl	r2, [r4], #-0
 80014a8:	487f7854 	ldmdami	pc!, {r2, r4, r6, fp, ip, sp, lr}^	; <UNPREDICTABLE>
 80014ac:	38384444 	ldmdacc	r8!, {r2, r6, sl, lr}
 80014b0:	20444444 	subcs	r4, r4, r4, asr #8
 80014b4:	48444438 	stmdami	r4, {r3, r4, r5, sl, lr}^
 80014b8:	5454387f 	ldrbpl	r3, [r4], #-2175	; 0xfffff781
 80014bc:	7e081854 	mcrvc	8, 0, r1, cr8, cr4, {2}
 80014c0:	0c020109 	stfeqs	f0, [r2], {9}
 80014c4:	3e525252 	mrccc	2, 2, r5, cr2, cr2, {2}
 80014c8:	0404087f 	streq	r0, [r4], #-2175	; 0xfffff781
 80014cc:	7d440078 	stclvc	0, cr0, [r4, #-480]	; 0xfffffe20
 80014d0:	40200040 	eormi	r0, r0, r0, asr #32
 80014d4:	7f003d44 	svcvc	0x00003d44
 80014d8:	00442810 	subeq	r2, r4, r0, lsl r8
 80014dc:	407f4100 	rsbsmi	r4, pc, r0, lsl #2
 80014e0:	18047c00 	stmdane	r4, {sl, fp, ip, sp, lr}
 80014e4:	087c7804 	ldmdaeq	ip!, {r2, fp, ip, sp, lr}^
 80014e8:	38780404 	ldmdacc	r8!, {r2, sl}^
 80014ec:	38444444 	stmdacc	r4, {r2, r6, sl, lr}^
 80014f0:	1414147c 	ldrne	r1, [r4], #-1148	; 0xfffffb84
 80014f4:	14140808 	ldrne	r0, [r4], #-2056	; 0xfffff7f8
 80014f8:	087c7c18 	ldmdaeq	ip!, {r3, r4, sl, fp, ip, sp, lr}^
 80014fc:	48080404 	stmdami	r8, {r2, sl}
 8001500:	20545454 	subscs	r5, r4, r4, asr r4
 8001504:	40443f04 	submi	r3, r4, r4, lsl #30
 8001508:	40403c20 	submi	r3, r0, r0, lsr #24
 800150c:	201c7c20 	andscs	r7, ip, r0, lsr #24
 8001510:	3c1c2040 	ldccc	0, cr2, [ip], {64}	; 0x40
 8001514:	3c403040 	mcrrcc	0, 4, r3, r0, cr0
 8001518:	28102844 	ldmdacs	r0, {r2, r6, fp, sp}
 800151c:	50500c44 	subspl	r0, r0, r4, asr #24
 8001520:	64443c50 	strbvs	r3, [r4], #-3152	; 0xfffff3b0
 8001524:	00444c54 	subeq	r4, r4, r4, asr ip
 8001528:	00413608 	subeq	r3, r1, r8, lsl #12
 800152c:	007f0000 	rsbseq	r0, pc, r0
 8001530:	36410000 	strbcc	r0, [r1], -r0
 8001534:	08100008 	ldmdaeq	r0, {r3}
 8001538:	78081008 	stmdavc	r8, {r3, ip}
 800153c:	78464146 	stmdavc	r6, {r1, r2, r6, r8, lr}^

08001540 <ASCII>:
 8001540:	00000000 	andeq	r0, r0, r0
 8001544:	5f000000 	svcpl	0x00000000
 8001548:	07000000 	streq	r0, [r0, -r0]
 800154c:	14000700 	strne	r0, [r0], #-1792	; 0xfffff900
 8001550:	147f147f 	ldrbtne	r1, [pc], #-1151	; 8001558 <ASCII+0x18>
 8001554:	2a7f2a24 	bcs	9fcbdec <_etext+0x1fca6cc>
 8001558:	08132312 	ldmdaeq	r3, {r1, r4, r8, r9, sp}
 800155c:	49366264 	ldmdbmi	r6!, {r2, r5, r6, r9, sp, lr}
 8001560:	00502255 	subseq	r2, r0, r5, asr r2
 8001564:	00000305 	andeq	r0, r0, r5, lsl #6
 8001568:	41221c00 			; <UNDEFINED> instruction: 0x41221c00
 800156c:	22410000 	subcs	r0, r1, #0
 8001570:	0814001c 	ldmdaeq	r4, {r2, r3, r4}
 8001574:	0814083e 	ldmdaeq	r4, {r1, r2, r3, r4, r5, fp}
 8001578:	08083e08 	stmdaeq	r8, {r3, r9, sl, fp, ip, sp}
 800157c:	00305000 	eorseq	r5, r0, r0
 8001580:	08080800 	stmdaeq	r8, {fp}
 8001584:	60000808 	andvs	r0, r0, r8, lsl #16
 8001588:	20000060 	andcs	r0, r0, r0, rrx
 800158c:	02040810 	andeq	r0, r4, #16, 16	; 0x100000
 8001590:	4549513e 	strbmi	r5, [r9, #-318]	; 0xfffffec2
 8001594:	7f42003e 	svcvc	0x0042003e
 8001598:	61420040 	cmpvs	r2, r0, asr #32
 800159c:	21464951 	cmpcs	r6, r1, asr r9
 80015a0:	314b4541 	cmpcc	fp, r1, asr #10
 80015a4:	7f121418 	svcvc	0x00121418
 80015a8:	45452710 	strbmi	r2, [r5, #-1808]	; 0xfffff8f0
 80015ac:	4a3c3945 	bmi	8f0fac8 <_etext+0xf0e3a8>
 80015b0:	01304949 	teqeq	r0, r9, asr #18
 80015b4:	03050971 	movweq	r0, #22897	; 0x5971
 80015b8:	49494936 	stmdbmi	r9, {r1, r2, r4, r5, r8, fp, lr}^
 80015bc:	49490636 	stmdbmi	r9, {r1, r2, r4, r5, r9, sl}^
 80015c0:	36001e29 	strcc	r1, [r0], -r9, lsr #28
 80015c4:	00000036 	andeq	r0, r0, r6, lsr r0
 80015c8:	00003656 	andeq	r3, r0, r6, asr r6
 80015cc:	41221408 			; <UNDEFINED> instruction: 0x41221408
 80015d0:	14141400 	ldrne	r1, [r4], #-1024	; 0xfffffc00
 80015d4:	41001414 	tstmi	r0, r4, lsl r4
 80015d8:	02081422 	andeq	r1, r8, #570425344	; 0x22000000
 80015dc:	06095101 	streq	r5, [r9], -r1, lsl #2
 80015e0:	41794932 	cmnmi	r9, r2, lsr r9
 80015e4:	11117e3e 	tstne	r1, lr, lsr lr
 80015e8:	497f7e11 	ldmdbmi	pc!, {r0, r4, r9, sl, fp, ip, sp, lr}^	; <UNPREDICTABLE>
 80015ec:	3e364949 	vsubcc.f16	s8, s12, s18	; <UNPREDICTABLE>
 80015f0:	22414141 	subcs	r4, r1, #1073741840	; 0x40000010
 80015f4:	2241417f 	subcs	r4, r1, #-1073741793	; 0xc000001f
 80015f8:	49497f1c 	stmdbmi	r9, {r2, r3, r4, r8, r9, sl, fp, ip, sp, lr}^
 80015fc:	097f4149 	ldmdbeq	pc!, {r0, r3, r6, r8, lr}^	; <UNPREDICTABLE>
 8001600:	3e010909 	vmlacc.f16	s0, s2, s18	; <UNPREDICTABLE>
 8001604:	7a494941 	bvc	9253b10 <_etext+0x12523f0>
 8001608:	0808087f 	stmdaeq	r8, {r0, r1, r2, r3, r4, r5, r6, fp}
 800160c:	7f41007f 	svcvc	0x0041007f
 8001610:	40200041 	eormi	r0, r0, r1, asr #32
 8001614:	7f013f41 	svcvc	0x00013f41
 8001618:	41221408 			; <UNDEFINED> instruction: 0x41221408
 800161c:	4040407f 	submi	r4, r0, pc, ror r0
 8001620:	0c027f40 	stceq	15, cr7, [r2], {64}	; 0x40
 8001624:	047f7f02 	ldrbteq	r7, [pc], #-3842	; 800162c <ASCII+0xec>
 8001628:	3e7f1008 	cdpcc	0, 7, cr1, cr15, cr8, {0}
 800162c:	3e414141 	dvfccsm	f4, f1, f1
 8001630:	0909097f 	stmdbeq	r9, {r0, r1, r2, r3, r4, r5, r6, r8, fp}
 8001634:	51413e06 	cmppl	r1, r6, lsl #28
 8001638:	097f5e21 	ldmdbeq	pc!, {r0, r5, r9, sl, fp, ip, lr}^	; <UNPREDICTABLE>
 800163c:	46462919 			; <UNDEFINED> instruction: 0x46462919
 8001640:	31494949 	cmpcc	r9, r9, asr #18
 8001644:	017f0101 	cmneq	pc, r1, lsl #2
 8001648:	40403f01 	submi	r3, r0, r1, lsl #30
 800164c:	201f3f40 	andscs	r3, pc, r0, asr #30
 8001650:	3f1f2040 	svccc	0x001f2040
 8001654:	3f403840 	svccc	0x00403840
 8001658:	14081463 	strne	r1, [r8], #-1123	; 0xfffffb9d
 800165c:	70080763 	andvc	r0, r8, r3, ror #14
 8001660:	51610708 	cmnpl	r1, r8, lsl #14
 8001664:	00434549 	subeq	r4, r3, r9, asr #10
 8001668:	0041417f 	subeq	r4, r1, pc, ror r1
 800166c:	10080402 	andne	r0, r8, r2, lsl #8
 8001670:	41410020 	cmpmi	r1, r0, lsr #32
 8001674:	0204007f 	andeq	r0, r4, #127	; 0x7f
 8001678:	40040201 	andmi	r0, r4, r1, lsl #4
 800167c:	40404040 	submi	r4, r0, r0, asr #32
 8001680:	04020100 	streq	r0, [r2], #-256	; 0xffffff00
 8001684:	54542000 	ldrbpl	r2, [r4], #-0
 8001688:	487f7854 	ldmdami	pc!, {r2, r4, r6, fp, ip, sp, lr}^	; <UNPREDICTABLE>
 800168c:	38384444 	ldmdacc	r8!, {r2, r6, sl, lr}
 8001690:	20444444 	subcs	r4, r4, r4, asr #8
 8001694:	48444438 	stmdami	r4, {r3, r4, r5, sl, lr}^
 8001698:	5454387f 	ldrbpl	r3, [r4], #-2175	; 0xfffff781
 800169c:	7e081854 	mcrvc	8, 0, r1, cr8, cr4, {2}
 80016a0:	0c020109 	stfeqs	f0, [r2], {9}
 80016a4:	3e525252 	mrccc	2, 2, r5, cr2, cr2, {2}
 80016a8:	0404087f 	streq	r0, [r4], #-2175	; 0xfffff781
 80016ac:	7d440078 	stclvc	0, cr0, [r4, #-480]	; 0xfffffe20
 80016b0:	40200040 	eormi	r0, r0, r0, asr #32
 80016b4:	7f003d44 	svcvc	0x00003d44
 80016b8:	00442810 	subeq	r2, r4, r0, lsl r8
 80016bc:	407f4100 	rsbsmi	r4, pc, r0, lsl #2
 80016c0:	18047c00 	stmdane	r4, {sl, fp, ip, sp, lr}
 80016c4:	087c7804 	ldmdaeq	ip!, {r2, fp, ip, sp, lr}^
 80016c8:	38780404 	ldmdacc	r8!, {r2, sl}^
 80016cc:	38444444 	stmdacc	r4, {r2, r6, sl, lr}^
 80016d0:	1414147c 	ldrne	r1, [r4], #-1148	; 0xfffffb84
 80016d4:	14140808 	ldrne	r0, [r4], #-2056	; 0xfffff7f8
 80016d8:	087c7c18 	ldmdaeq	ip!, {r3, r4, sl, fp, ip, sp, lr}^
 80016dc:	48080404 	stmdami	r8, {r2, sl}
 80016e0:	20545454 	subscs	r5, r4, r4, asr r4
 80016e4:	40443f04 	submi	r3, r4, r4, lsl #30
 80016e8:	40403c20 	submi	r3, r0, r0, lsr #24
 80016ec:	201c7c20 	andscs	r7, ip, r0, lsr #24
 80016f0:	3c1c2040 	ldccc	0, cr2, [ip], {64}	; 0x40
 80016f4:	3c403040 	mcrrcc	0, 4, r3, r0, cr0
 80016f8:	28102844 	ldmdacs	r0, {r2, r6, fp, sp}
 80016fc:	50500c44 	subspl	r0, r0, r4, asr #24
 8001700:	64443c50 	strbvs	r3, [r4], #-3152	; 0xfffff3b0
 8001704:	00444c54 	subeq	r4, r4, r4, asr ip
 8001708:	00413608 	subeq	r3, r1, r8, lsl #12
 800170c:	007f0000 	rsbseq	r0, pc, r0
 8001710:	36410000 	strbcc	r0, [r1], -r0
 8001714:	08100008 	ldmdaeq	r0, {r3}
 8001718:	78081008 	stmdavc	r8, {r3, ip}
 800171c:	78464146 	stmdavc	r6, {r1, r2, r6, r8, lr}^

Disassembly of section .data:

20000000 <jake0>:
	...
20000090:	80800000 	addhi	r0, r0, r0
20000094:	80808080 	addhi	r8, r0, r0, lsl #1
20000098:	80808080 	addhi	r8, r0, r0, lsl #1
2000009c:	c0808080 	addgt	r8, r0, r0, lsl #1
200000a0:	c0c0c0c0 	sbcgt	ip, r0, r0, asr #1
200000a4:	e0e0e0e0 	rsc	lr, r0, r0, ror #1
200000a8:	f0f0e0e0 			; <UNDEFINED> instruction: 0xf0f0e0e0
200000ac:	f0f0f0f0 			; <UNDEFINED> instruction: 0xf0f0f0f0
200000b0:	f0f0f0f0 			; <UNDEFINED> instruction: 0xf0f0f0f0
200000b4:	f0f0f0f0 			; <UNDEFINED> instruction: 0xf0f0f0f0
200000b8:	f0f0f0f0 			; <UNDEFINED> instruction: 0xf0f0f0f0
200000bc:	e0e0f0f0 	strd	pc, [r0], #0	; <UNPREDICTABLE>
200000c0:	e060e0e0 	rsb	lr, r0, r0, ror #1
200000c4:	0080c0c0 	addeq	ip, r0, r0, asr #1
	...
200000f0:	e0e08000 	rsc	r8, r0, r0
200000f4:	fcf8f8f0 	ldc2l	8, cr15, [r8], #960	; 0x3c0
200000f8:	fffefefe 			; <UNDEFINED> instruction: 0xfffefefe
200000fc:	ffffffff 			; <UNDEFINED> instruction: 0xffffffff
20000100:	ffffffff 			; <UNDEFINED> instruction: 0xffffffff
20000104:	ffffffff 			; <UNDEFINED> instruction: 0xffffffff
20000108:	ffffffff 			; <UNDEFINED> instruction: 0xffffffff
2000010c:	ffffffff 			; <UNDEFINED> instruction: 0xffffffff
20000110:	ffffffff 			; <UNDEFINED> instruction: 0xffffffff
20000114:	ffffffff 			; <UNDEFINED> instruction: 0xffffffff
20000118:	ffffffff 			; <UNDEFINED> instruction: 0xffffffff
2000011c:	ffffffff 			; <UNDEFINED> instruction: 0xffffffff
20000120:	ffffffff 			; <UNDEFINED> instruction: 0xffffffff
20000124:	ffffffff 			; <UNDEFINED> instruction: 0xffffffff
20000128:	c3c6cfff 	bicgt	ip, r6, #1020	; 0x3fc
2000012c:	038383c3 	orreq	r8, r3, #201326595	; 0xc000003
20000130:	87830303 	strhi	r0, [r3, r3, lsl #6]
20000134:	ccfeffcf 	ldclgt	15, cr15, [lr], #828	; 0x33c
20000138:	0000e0f8 	strdeq	lr, [r0], -r8
	...
2000015c:	fff0c080 			; <UNDEFINED> instruction: 0xfff0c080
20000160:	ffffffff 			; <UNDEFINED> instruction: 0xffffffff
20000164:	ffffffff 			; <UNDEFINED> instruction: 0xffffffff
20000168:	ffffffff 			; <UNDEFINED> instruction: 0xffffffff
2000016c:	ffffffff 			; <UNDEFINED> instruction: 0xffffffff
20000170:	ffffffff 			; <UNDEFINED> instruction: 0xffffffff
20000174:	ffffffff 			; <UNDEFINED> instruction: 0xffffffff
20000178:	ffffffff 			; <UNDEFINED> instruction: 0xffffffff
2000017c:	ffffffff 			; <UNDEFINED> instruction: 0xffffffff
20000180:	ffffffff 			; <UNDEFINED> instruction: 0xffffffff
20000184:	ffffffff 			; <UNDEFINED> instruction: 0xffffffff
20000188:	ffffffff 			; <UNDEFINED> instruction: 0xffffffff
2000018c:	ffffffff 			; <UNDEFINED> instruction: 0xffffffff
20000190:	ffffffff 			; <UNDEFINED> instruction: 0xffffffff
20000194:	ffffefdf 			; <UNDEFINED> instruction: 0xffffefdf
20000198:	ffbfffbf 			; <UNDEFINED> instruction: 0xffbfffbf
2000019c:	1f3f6fff 	svcne	0x003f6fff
200001a0:	1f1f1f1f 	svcne	0x001f1f1f
200001a4:	01f7ff1f 	mvnseq	pc, pc, lsl pc	; <UNPREDICTABLE>
	...
200001c8:	fffffef0 			; <UNDEFINED> instruction: 0xfffffef0
200001cc:	0003ffff 	strdeq	pc, [r3], -pc	; <UNPREDICTABLE>
200001d0:	07070301 	streq	r0, [r7, -r1, lsl #6]
200001d4:	1f1f0f0f 	svcne	0x001f0f0f
200001d8:	ffffffdf 			; <UNDEFINED> instruction: 0xffffffdf
200001dc:	7f7fffff 	svcvc	0x007fffff
200001e0:	7f7f7f7f 	svcvc	0x007f7f7f
200001e4:	7f7f7f7f 	svcvc	0x007f7f7f
200001e8:	7f7f7f7f 	svcvc	0x007f7f7f
200001ec:	ffff3f3f 			; <UNDEFINED> instruction: 0xffff3f3f
200001f0:	1fffffff 	svcne	0x00ffffff
200001f4:	0f0f0f1f 	svceq	0x000f0f1f
200001f8:	07070f0f 	streq	r0, [r7, -pc, lsl #30]
200001fc:	07070707 	streq	r0, [r7, -r7, lsl #14]
20000200:	ffff0f07 			; <UNDEFINED> instruction: 0xffff0f07
20000204:	03e3ffff 	mvneq	pc, #1020	; 0x3fc
20000208:	02030707 	andeq	r0, r3, #1835008	; 0x1c0000
2000020c:	02000202 	andeq	r0, r0, #536870912	; 0x20000000
20000210:	01010202 	tsteq	r1, r2, lsl #4
	...
20000234:	87800000 	strhi	r0, [r0, r0]
20000238:	ffffffdf 			; <UNDEFINED> instruction: 0xffffffdf
2000023c:	00c0e0fc 	strdeq	lr, [r0], #12
20000240:	00000000 	andeq	r0, r0, r0
20000244:	ffff3e00 			; <UNDEFINED> instruction: 0xffff3e00
20000248:	00ffffff 	ldrshteq	pc, [pc], #255	; <UNPREDICTABLE>
	...
20000258:	07030302 	streq	r0, [r3, -r2, lsl #6]
2000025c:	03030707 	movweq	r0, #14087	; 0x3707
20000260:	00000003 	andeq	r0, r0, r3
	...
20000270:	ff7f0700 			; <UNDEFINED> instruction: 0xff7f0700
20000274:	80e0feff 	strdhi	pc, [r0], #239	; 0xef	; <UNPREDICTABLE>
	...
200002a0:	01000000 	mrseq	r0, (UNDEF: 0)
200002a4:	01010101 	tsteq	r1, r1, lsl #2
200002a8:	01010101 	tsteq	r1, r1, lsl #2
200002ac:	00010101 	andeq	r0, r1, r1, lsl #2
200002b0:	c0800000 	addgt	r0, r0, r0
200002b4:	ffffe7c1 			; <UNDEFINED> instruction: 0xffffe7c1
200002b8:	78fcffff 	ldmvc	ip!, {r0, r1, r2, r3, r4, r5, r6, r7, r8, r9, sl, fp, ip, sp, lr, pc}^
200002bc:	40606070 	rsbmi	r6, r0, r0, ror r0
	...
200002dc:	06060202 	streq	r0, [r6], -r2, lsl #4
200002e0:	07070706 	streq	r0, [r7, -r6, lsl #14]
200002e4:	07070707 	streq	r0, [r7, -r7, lsl #14]
200002e8:	00020707 	andeq	r0, r2, r7, lsl #14
	...

20000304 <jake2>:
	...
200003a8:	80800000 	addhi	r0, r0, r0
200003ac:	c0808080 	addgt	r8, r0, r0, lsl #1
200003b0:	c0c0c0c0 	sbcgt	ip, r0, r0, asr #1
200003b4:	e0c0c0c0 	sbc	ip, r0, r0, asr #1
200003b8:	e0e0e0e0 	rsc	lr, r0, r0, ror #1
200003bc:	c0c0e0e0 	sbcgt	lr, r0, r0, ror #1
200003c0:	80c0c0c0 	sbchi	ip, r0, r0, asr #1
200003c4:	00008080 	andeq	r8, r0, r0, lsl #1
	...
200003f8:	c0808000 	addgt	r8, r0, r0
200003fc:	e0e0c0c0 	rsc	ip, r0, r0, asr #1
20000400:	f0f0f0f0 			; <UNDEFINED> instruction: 0xf0f0f0f0
20000404:	f8f8f8f0 			; <UNDEFINED> instruction: 0xf8f8f8f0
20000408:	f8f8f8f8 			; <UNDEFINED> instruction: 0xf8f8f8f8
2000040c:	fcf8f8f8 	ldc2l	8, cr15, [r8], #992	; 0x3e0
20000410:	fefefcfc 	mrc2	12, 7, pc, cr14, cr12, {7}
20000414:	fffffffe 			; <UNDEFINED> instruction: 0xfffffffe
20000418:	ffffffff 			; <UNDEFINED> instruction: 0xffffffff
2000041c:	ffffffff 			; <UNDEFINED> instruction: 0xffffffff
20000420:	ffffffff 			; <UNDEFINED> instruction: 0xffffffff
20000424:	ffffffff 			; <UNDEFINED> instruction: 0xffffffff
20000428:	83878fdf 	orrhi	r8, r7, #892	; 0x37c
2000042c:	83838383 	orrhi	r8, r3, #201326594	; 0xc000002
20000430:	87030303 	strhi	r0, [r3, -r3, lsl #6]
20000434:	fefaff8d 	cdp2	15, 15, cr15, cr10, cr13, {4}
20000438:	f0f8f8fc 			; <UNDEFINED> instruction: 0xf0f8f8fc
2000043c:	000000c0 	andeq	r0, r0, r0, asr #1
	...
20000464:	fffffcf8 			; <UNDEFINED> instruction: 0xfffffcf8
20000468:	ffffffff 			; <UNDEFINED> instruction: 0xffffffff
2000046c:	ffffffff 			; <UNDEFINED> instruction: 0xffffffff
20000470:	ffffffff 			; <UNDEFINED> instruction: 0xffffffff
20000474:	ffffffff 			; <UNDEFINED> instruction: 0xffffffff
20000478:	ffffffff 			; <UNDEFINED> instruction: 0xffffffff
2000047c:	ffffffff 			; <UNDEFINED> instruction: 0xffffffff
20000480:	ffffffff 			; <UNDEFINED> instruction: 0xffffffff
20000484:	ffffffff 			; <UNDEFINED> instruction: 0xffffffff
20000488:	ffffffff 			; <UNDEFINED> instruction: 0xffffffff
2000048c:	ffffffff 			; <UNDEFINED> instruction: 0xffffffff
20000490:	ffffffff 			; <UNDEFINED> instruction: 0xffffffff
20000494:	ffffffff 			; <UNDEFINED> instruction: 0xffffffff
20000498:	dfdfbfff 	svcle	0x00dfbfff
2000049c:	ff7fbfbf 			; <UNDEFINED> instruction: 0xff7fbfbf
200004a0:	7fffffff 	svcvc	0x00ffffff
200004a4:	0f0f0f0f 	svceq	0x000f0f0f
200004a8:	180f0f0f 	stmdane	pc, {r0, r1, r2, r3, r8, r9, sl, fp}	; <UNPREDICTABLE>
200004ac:	00000070 	andeq	r0, r0, r0, ror r0
	...
200004cc:	fffefcf0 			; <UNDEFINED> instruction: 0xfffefcf0
200004d0:	07070f0f 	streq	r0, [r7, -pc, lsl #30]
200004d4:	7f3f1f1f 	svcvc	0x003f1f1f
200004d8:	ffffff7f 			; <UNDEFINED> instruction: 0xffffff7f
200004dc:	ffffffff 			; <UNDEFINED> instruction: 0xffffffff
200004e0:	ffffffff 			; <UNDEFINED> instruction: 0xffffffff
200004e4:	ffffffff 			; <UNDEFINED> instruction: 0xffffffff
200004e8:	ffffffff 			; <UNDEFINED> instruction: 0xffffffff
200004ec:	ffffffff 			; <UNDEFINED> instruction: 0xffffffff
200004f0:	ffffffff 			; <UNDEFINED> instruction: 0xffffffff
200004f4:	ffffffff 			; <UNDEFINED> instruction: 0xffffffff
200004f8:	ffffffff 			; <UNDEFINED> instruction: 0xffffffff
200004fc:	7f7f7f7f 	svcvc	0x007f7f7f
20000500:	3f3f3f3f 	svccc	0x003f3f3f
20000504:	3f1f1f1f 	svccc	0x001f1f1f
20000508:	efffffff 	svc	0x00ffffff
2000050c:	03030707 	movweq	r0, #14087	; 0x3707
20000510:	02020303 	andeq	r0, r2, #201326592	; 0xc000000
20000514:	00000100 	andeq	r0, r0, r0, lsl #2
	...
20000538:	87830000 	strhi	r0, [r3, r0]
2000053c:	f8feffdf 			; <UNDEFINED> instruction: 0xf8feffdf
20000540:	00c0e0f0 	strdeq	lr, [r0], #0
20000544:	00000000 	andeq	r0, r0, r0
20000548:	fffffd78 			; <UNDEFINED> instruction: 0xfffffd78
2000054c:	03078fff 	movweq	r8, #32767	; 0x7fff
20000550:	07030303 	streq	r0, [r3, -r3, lsl #6]
20000554:	07070707 	streq	r0, [r7, -r7, lsl #14]
20000558:	03070707 	movweq	r0, #30471	; 0x7707
2000055c:	07030303 	streq	r0, [r3, -r3, lsl #6]
20000560:	03030707 	movweq	r0, #14087	; 0x3707
20000564:	00000103 	andeq	r0, r0, r3, lsl #2
	...
20000574:	ff1f0000 			; <UNDEFINED> instruction: 0xff1f0000
20000578:	00f8ffff 	ldrshteq	pc, [r8], #255	; 0xff	; <UNPREDICTABLE>
	...
200005a8:	01010101 	tsteq	r1, r1, lsl #2
200005ac:	01010101 	tsteq	r1, r1, lsl #2
200005b0:	00000001 	andeq	r0, r0, r1
200005b4:	c1800000 	orrgt	r0, r0, r0
200005b8:	ffefe7c3 			; <UNDEFINED> instruction: 0xffefe7c3
200005bc:	78f8fcff 	ldmvc	r8!, {r0, r1, r2, r3, r4, r5, r6, r7, sl, fp, ip, sp, lr, pc}^
200005c0:	00606070 	rsbeq	r6, r0, r0, ror r0
	...
200005dc:	02020000 	andeq	r0, r2, #0
200005e0:	06020202 	streq	r0, [r2], -r2, lsl #4
200005e4:	07070706 	streq	r0, [r7, -r6, lsl #14]
200005e8:	07070707 	streq	r0, [r7, -r7, lsl #14]
200005ec:	00000707 	andeq	r0, r0, r7, lsl #14
	...

20000608 <jake3>:
	...
20000710:	e0c08000 	sbc	r8, r0, r0
20000714:	f8f0f0e0 			; <UNDEFINED> instruction: 0xf8f0f0e0
20000718:	fcf8f8f8 	ldc2l	8, cr15, [r8], #992	; 0x3e0
2000071c:	7c7c7cfc 	ldclvc	12, cr7, [ip], #-1008	; 0xfffffc10
20000720:	7c7c7c7c 	ldclvc	12, cr7, [ip], #-496	; 0xfffffe10
20000724:	fcfc7c7c 	ldc2l	12, cr7, [ip], #496	; 0x1f0
20000728:	fcfcfcfc 	ldc2l	12, cr15, [ip], #1008	; 0x3f0
2000072c:	f8f8f8fc 			; <UNDEFINED> instruction: 0xf8f8f8fc
20000730:	f0f0f0f8 			; <UNDEFINED> instruction: 0xf0f0f0f8
20000734:	80c0e0e0 	sbchi	lr, r0, r0, ror #1
20000738:	00008080 	andeq	r8, r0, r0, lsl #1
	...
20000774:	80808000 	addhi	r8, r0, r0
20000778:	f0c0c080 			; <UNDEFINED> instruction: 0xf0c0c080
2000077c:	fffffef8 			; <UNDEFINED> instruction: 0xfffffef8
20000780:	ffffffff 			; <UNDEFINED> instruction: 0xffffffff
20000784:	ffffffff 			; <UNDEFINED> instruction: 0xffffffff
20000788:	f0f0f8ff 			; <UNDEFINED> instruction: 0xf0f0f8ff
2000078c:	f0e0e0e0 			; <UNDEFINED> instruction: 0xf0e0e0e0
20000790:	f8f8f8f0 			; <UNDEFINED> instruction: 0xf8f8f8f0
20000794:	fffffffc 			; <UNDEFINED> instruction: 0xfffffffc
20000798:	ffffffff 			; <UNDEFINED> instruction: 0xffffffff
2000079c:	f1ffffff 			; <UNDEFINED> instruction: 0xf1ffffff
200007a0:	c0e0e0f1 	strdgt	lr, [r0], #1	; <UNPREDICTABLE>
200007a4:	61e1e0c0 	mvnvs	lr, r0, asr #1
200007a8:	00040331 	andeq	r0, r4, r1, lsr r3
	...
200007cc:	e0e0c080 	rsc	ip, r0, r0, lsl #1
200007d0:	e0e0e0e0 	rsc	lr, r0, r0, ror #1
200007d4:	c0c0e0e0 	sbcgt	lr, r0, r0, ror #1
200007d8:	fcf8f0e0 	ldc2l	0, cr15, [r8], #896	; 0x380
200007dc:	fffefefc 			; <UNDEFINED> instruction: 0xfffefefc
200007e0:	ffffffff 			; <UNDEFINED> instruction: 0xffffffff
200007e4:	ffffffff 			; <UNDEFINED> instruction: 0xffffffff
200007e8:	ffffffff 			; <UNDEFINED> instruction: 0xffffffff
200007ec:	ffffffff 			; <UNDEFINED> instruction: 0xffffffff
200007f0:	ffffffff 			; <UNDEFINED> instruction: 0xffffffff
200007f4:	ffffffff 			; <UNDEFINED> instruction: 0xffffffff
200007f8:	ffffffff 			; <UNDEFINED> instruction: 0xffffffff
200007fc:	ffffffff 			; <UNDEFINED> instruction: 0xffffffff
20000800:	fdffffff 	ldc2l	15, cr15, [pc, #1020]!	; 20000c04 <jake4+0x2f8>
20000804:	fefffefe 	mrc2	14, 7, pc, cr15, cr14, {7}
20000808:	fffcfeff 			; <UNDEFINED> instruction: 0xfffcfeff
2000080c:	ffffffff 			; <UNDEFINED> instruction: 0xffffffff
20000810:	ffffffff 			; <UNDEFINED> instruction: 0xffffffff
20000814:	00000003 	andeq	r0, r0, r3
	...
20000838:	07010000 	streq	r0, [r1, -r0]
2000083c:	bf9f1f0f 	svclt	0x009f1f0f
20000840:	f1f8fcfe 			; <UNDEFINED> instruction: 0xf1f8fcfe
20000844:	9fc7e3e1 	svcls	0x00c7e3e1
20000848:	ffff3f1f 			; <UNDEFINED> instruction: 0xffff3f1f
2000084c:	ffffffff 			; <UNDEFINED> instruction: 0xffffffff
20000850:	ffffffff 			; <UNDEFINED> instruction: 0xffffffff
20000854:	ffffffff 			; <UNDEFINED> instruction: 0xffffffff
20000858:	ffffffff 			; <UNDEFINED> instruction: 0xffffffff
2000085c:	ffffffff 			; <UNDEFINED> instruction: 0xffffffff
20000860:	ffffffff 			; <UNDEFINED> instruction: 0xffffffff
20000864:	ffffffff 			; <UNDEFINED> instruction: 0xffffffff
20000868:	7fffffff 	svcvc	0x00ffffff
2000086c:	7f7f7f7f 	svcvc	0x007f7f7f
20000870:	7f7f7f7f 	svcvc	0x007f7f7f
20000874:	1f3f3f7f 	svcne	0x003f3f7f
20000878:	f3070f1f 	vmaxnm.f32	d0, d7, d15
2000087c:	3fffffff 	svccc	0x00ffffff
20000880:	00000007 	andeq	r0, r0, r7
	...
200008a8:	01000000 	mrseq	r0, (UNDEF: 0)
200008ac:	01010101 	tsteq	r1, r1, lsl #2
200008b0:	01010101 	tsteq	r1, r1, lsl #2
200008b4:	00000101 	andeq	r0, r0, r1, lsl #2
200008b8:	cf878301 	svcgt	0x00878301
200008bc:	ffffffff 			; <UNDEFINED> instruction: 0xffffffff
200008c0:	7ff7ffff 	svcvc	0x00f7ffff
200008c4:	67676777 			; <UNDEFINED> instruction: 0x67676777
200008c8:	03030307 	movweq	r0, #13063	; 0x3307
200008cc:	03030303 	movweq	r0, #13059	; 0x3303
200008d0:	01010303 	tsteq	r1, r3, lsl #6
	...
200008e4:	06020000 	streq	r0, [r2], -r0
200008e8:	07070707 	streq	r0, [r7, -r7, lsl #14]
200008ec:	07070707 	streq	r0, [r7, -r7, lsl #14]
200008f0:	00020307 	andeq	r0, r2, r7, lsl #6
	...

2000090c <jake4>:
	...
200009ac:	80000000 	andhi	r0, r0, r0
200009b0:	c0c0c080 	sbcgt	ip, r0, r0, lsl #1
200009b4:	e0e0e0e0 	rsc	lr, r0, r0, ror #1
200009b8:	e0e0e0e0 	rsc	lr, r0, r0, ror #1
200009bc:	e0e0e0e0 	rsc	lr, r0, r0, ror #1
200009c0:	e0e0e0e0 	rsc	lr, r0, r0, ror #1
200009c4:	c0c0c0e0 	sbcgt	ip, r0, r0, ror #1
200009c8:	00808080 	addeq	r8, r0, r0, lsl #1
	...
20000a10:	c0800000 	addgt	r0, r0, r0
20000a14:	f8f0e0c0 			; <UNDEFINED> instruction: 0xf8f0e0c0
20000a18:	fffefef8 			; <UNDEFINED> instruction: 0xfffefef8
20000a1c:	ffffffff 			; <UNDEFINED> instruction: 0xffffffff
20000a20:	ffffffff 			; <UNDEFINED> instruction: 0xffffffff
20000a24:	018787ff 	strdeq	r8, [r7, pc]
20000a28:	81810101 	orrhi	r0, r1, r1, lsl #2
20000a2c:	87c18181 	strbhi	r8, [r1, r1, lsl #3]
20000a30:	ffffffc7 			; <UNDEFINED> instruction: 0xffffffc7
20000a34:	ffffffff 			; <UNDEFINED> instruction: 0xffffffff
20000a38:	7e7f7fff 	mrcvc	15, 3, r7, cr15, cr15, {7}
20000a3c:	7070787e 	rsbsvc	r7, r0, lr, ror r8
20000a40:	80c04060 	sbchi	r4, r0, r0, rrx
	...
20000a6c:	e0c08000 	sbc	r8, r0, r0
20000a70:	f8f0f0e0 			; <UNDEFINED> instruction: 0xf8f0f0e0
20000a74:	fef8f8f8 	mrc2	8, 7, pc, cr8, cr8, {7}
20000a78:	fefefefe 	mrc2	14, 7, pc, cr14, cr14, {7}
20000a7c:	fffffffe 			; <UNDEFINED> instruction: 0xfffffffe
20000a80:	ffffffff 			; <UNDEFINED> instruction: 0xffffffff
20000a84:	ffffffff 			; <UNDEFINED> instruction: 0xffffffff
20000a88:	ffffffff 			; <UNDEFINED> instruction: 0xffffffff
20000a8c:	ffffffff 			; <UNDEFINED> instruction: 0xffffffff
20000a90:	ffffffff 			; <UNDEFINED> instruction: 0xffffffff
20000a94:	ffffffff 			; <UNDEFINED> instruction: 0xffffffff
20000a98:	cfffffff 	svcgt	0x00ffffff
20000a9c:	f7ffe7ff 			; <UNDEFINED> instruction: 0xf7ffe7ff
20000aa0:	ffff9f87 			; <UNDEFINED> instruction: 0xffff9f87
20000aa4:	f8feffff 			; <UNDEFINED> instruction: 0xf8feffff
20000aa8:	e0e0e0f0 	strd	lr, [r0], #0	; <UNPREDICTABLE>
20000aac:	10306060 	eorsne	r6, r0, r0, rrx
20000ab0:	00000708 	andeq	r0, r0, r8, lsl #14
	...
20000ad0:	e0e00000 	rsc	r0, r0, r0
20000ad4:	70f0f0f0 	ldrshtvc	pc, [r0], #0	; <UNPREDICTABLE>
20000ad8:	ff7f7070 			; <UNDEFINED> instruction: 0xff7f7070
20000adc:	ffffffff 			; <UNDEFINED> instruction: 0xffffffff
20000ae0:	ffffffff 			; <UNDEFINED> instruction: 0xffffffff
20000ae4:	ffffffff 			; <UNDEFINED> instruction: 0xffffffff
20000ae8:	ffffffff 			; <UNDEFINED> instruction: 0xffffffff
20000aec:	ffffffff 			; <UNDEFINED> instruction: 0xffffffff
20000af0:	ffffffff 			; <UNDEFINED> instruction: 0xffffffff
20000af4:	ffffffff 			; <UNDEFINED> instruction: 0xffffffff
20000af8:	ffffffff 			; <UNDEFINED> instruction: 0xffffffff
20000afc:	ffffffff 			; <UNDEFINED> instruction: 0xffffffff
20000b00:	ffffffff 			; <UNDEFINED> instruction: 0xffffffff
20000b04:	ffffffff 			; <UNDEFINED> instruction: 0xffffffff
20000b08:	ffffffff 			; <UNDEFINED> instruction: 0xffffffff
20000b0c:	ffffffff 			; <UNDEFINED> instruction: 0xffffffff
20000b10:	ffffff7f 			; <UNDEFINED> instruction: 0xffffff7f
20000b14:	0707ffff 			; <UNDEFINED> instruction: 0x0707ffff
20000b18:	00000001 	andeq	r0, r0, r1
	...
20000b40:	7f3f0f07 	svcvc	0x003f0f07
20000b44:	f0f8fcff 			; <UNDEFINED> instruction: 0xf0f8fcff
20000b48:	0783c0e0 	streq	ip, [r3, r0, ror #1]
20000b4c:	ff1f0f0f 			; <UNDEFINED> instruction: 0xff1f0f0f
20000b50:	ffffffff 			; <UNDEFINED> instruction: 0xffffffff
20000b54:	ffffffff 			; <UNDEFINED> instruction: 0xffffffff
20000b58:	ffffffff 			; <UNDEFINED> instruction: 0xffffffff
20000b5c:	ffffffff 			; <UNDEFINED> instruction: 0xffffffff
20000b60:	ffffffff 			; <UNDEFINED> instruction: 0xffffffff
20000b64:	ffffffff 			; <UNDEFINED> instruction: 0xffffffff
20000b68:	ffffffff 			; <UNDEFINED> instruction: 0xffffffff
20000b6c:	7fffffff 	svcvc	0x00ffffff
20000b70:	3f3f7f7f 	svccc	0x003f7f7f
20000b74:	0f0f1f1f 	svceq	0x000f1f1f
20000b78:	0303070f 	movweq	r0, #14095	; 0x370f
20000b7c:	ff000000 			; <UNDEFINED> instruction: 0xff000000
20000b80:	7fffffff 	svcvc	0x00ffffff
	...
20000bac:	04000000 	streq	r0, [r0], #-0
20000bb0:	07070707 	streq	r0, [r7, -r7, lsl #14]
20000bb4:	07070707 	streq	r0, [r7, -r7, lsl #14]
20000bb8:	00000707 	andeq	r0, r0, r7, lsl #14
20000bbc:	1f0f0700 	svcne	0x000f0700
20000bc0:	f8ffffbf 			; <UNDEFINED> instruction: 0xf8ffffbf
20000bc4:	c7e7e3f8 			; <UNDEFINED> instruction: 0xc7e7e3f8
20000bc8:	878787c7 	strhi	r8, [r7, r7, asr #15]
20000bcc:	0f0f0f07 	svceq	0x000f0f07
20000bd0:	0707070f 	streq	r0, [r7, -pc, lsl #14]
20000bd4:	03030303 	movweq	r0, #13059	; 0x3303
20000bd8:	01010303 	tsteq	r1, r3, lsl #6
	...
20000be8:	18080808 	stmdane	r8, {r3, fp}
20000bec:	1f1f1f18 	svcne	0x001f1f18
20000bf0:	1c1c1c1f 	ldcne	12, cr1, [ip], {31}
20000bf4:	00081c1c 	andeq	r1, r8, ip, lsl ip
	...

20000c10 <jake0>:
	...
20000ca0:	80800000 	addhi	r0, r0, r0
20000ca4:	80808080 	addhi	r8, r0, r0, lsl #1
20000ca8:	80808080 	addhi	r8, r0, r0, lsl #1
20000cac:	c0808080 	addgt	r8, r0, r0, lsl #1
20000cb0:	c0c0c0c0 	sbcgt	ip, r0, r0, asr #1
20000cb4:	e0e0e0e0 	rsc	lr, r0, r0, ror #1
20000cb8:	f0f0e0e0 			; <UNDEFINED> instruction: 0xf0f0e0e0
20000cbc:	f0f0f0f0 			; <UNDEFINED> instruction: 0xf0f0f0f0
20000cc0:	f0f0f0f0 			; <UNDEFINED> instruction: 0xf0f0f0f0
20000cc4:	f0f0f0f0 			; <UNDEFINED> instruction: 0xf0f0f0f0
20000cc8:	f0f0f0f0 			; <UNDEFINED> instruction: 0xf0f0f0f0
20000ccc:	e0e0f0f0 	strd	pc, [r0], #0	; <UNPREDICTABLE>
20000cd0:	e060e0e0 	rsb	lr, r0, r0, ror #1
20000cd4:	0080c0c0 	addeq	ip, r0, r0, asr #1
	...
20000d00:	e0e08000 	rsc	r8, r0, r0
20000d04:	fcf8f8f0 	ldc2l	8, cr15, [r8], #960	; 0x3c0
20000d08:	fffefefe 			; <UNDEFINED> instruction: 0xfffefefe
20000d0c:	ffffffff 			; <UNDEFINED> instruction: 0xffffffff
20000d10:	ffffffff 			; <UNDEFINED> instruction: 0xffffffff
20000d14:	ffffffff 			; <UNDEFINED> instruction: 0xffffffff
20000d18:	ffffffff 			; <UNDEFINED> instruction: 0xffffffff
20000d1c:	ffffffff 			; <UNDEFINED> instruction: 0xffffffff
20000d20:	ffffffff 			; <UNDEFINED> instruction: 0xffffffff
20000d24:	ffffffff 			; <UNDEFINED> instruction: 0xffffffff
20000d28:	ffffffff 			; <UNDEFINED> instruction: 0xffffffff
20000d2c:	ffffffff 			; <UNDEFINED> instruction: 0xffffffff
20000d30:	ffffffff 			; <UNDEFINED> instruction: 0xffffffff
20000d34:	ffffffff 			; <UNDEFINED> instruction: 0xffffffff
20000d38:	c3c6cfff 	bicgt	ip, r6, #1020	; 0x3fc
20000d3c:	038383c3 	orreq	r8, r3, #201326595	; 0xc000003
20000d40:	87830303 	strhi	r0, [r3, r3, lsl #6]
20000d44:	ccfeffcf 	ldclgt	15, cr15, [lr], #828	; 0x33c
20000d48:	0000e0f8 	strdeq	lr, [r0], -r8
	...
20000d6c:	fff0c080 			; <UNDEFINED> instruction: 0xfff0c080
20000d70:	ffffffff 			; <UNDEFINED> instruction: 0xffffffff
20000d74:	ffffffff 			; <UNDEFINED> instruction: 0xffffffff
20000d78:	ffffffff 			; <UNDEFINED> instruction: 0xffffffff
20000d7c:	ffffffff 			; <UNDEFINED> instruction: 0xffffffff
20000d80:	ffffffff 			; <UNDEFINED> instruction: 0xffffffff
20000d84:	ffffffff 			; <UNDEFINED> instruction: 0xffffffff
20000d88:	ffffffff 			; <UNDEFINED> instruction: 0xffffffff
20000d8c:	ffffffff 			; <UNDEFINED> instruction: 0xffffffff
20000d90:	ffffffff 			; <UNDEFINED> instruction: 0xffffffff
20000d94:	ffffffff 			; <UNDEFINED> instruction: 0xffffffff
20000d98:	ffffffff 			; <UNDEFINED> instruction: 0xffffffff
20000d9c:	ffffffff 			; <UNDEFINED> instruction: 0xffffffff
20000da0:	ffffffff 			; <UNDEFINED> instruction: 0xffffffff
20000da4:	ffffefdf 			; <UNDEFINED> instruction: 0xffffefdf
20000da8:	ffbfffbf 			; <UNDEFINED> instruction: 0xffbfffbf
20000dac:	1f3f6fff 	svcne	0x003f6fff
20000db0:	1f1f1f1f 	svcne	0x001f1f1f
20000db4:	01f7ff1f 	mvnseq	pc, pc, lsl pc	; <UNPREDICTABLE>
	...
20000dd8:	fffffef0 			; <UNDEFINED> instruction: 0xfffffef0
20000ddc:	0003ffff 	strdeq	pc, [r3], -pc	; <UNPREDICTABLE>
20000de0:	07070301 	streq	r0, [r7, -r1, lsl #6]
20000de4:	1f1f0f0f 	svcne	0x001f0f0f
20000de8:	ffffffdf 			; <UNDEFINED> instruction: 0xffffffdf
20000dec:	7f7fffff 	svcvc	0x007fffff
20000df0:	7f7f7f7f 	svcvc	0x007f7f7f
20000df4:	7f7f7f7f 	svcvc	0x007f7f7f
20000df8:	7f7f7f7f 	svcvc	0x007f7f7f
20000dfc:	ffff3f3f 			; <UNDEFINED> instruction: 0xffff3f3f
20000e00:	1fffffff 	svcne	0x00ffffff
20000e04:	0f0f0f1f 	svceq	0x000f0f1f
20000e08:	07070f0f 	streq	r0, [r7, -pc, lsl #30]
20000e0c:	07070707 	streq	r0, [r7, -r7, lsl #14]
20000e10:	ffff0f07 			; <UNDEFINED> instruction: 0xffff0f07
20000e14:	03e3ffff 	mvneq	pc, #1020	; 0x3fc
20000e18:	02030707 	andeq	r0, r3, #1835008	; 0x1c0000
20000e1c:	02000202 	andeq	r0, r0, #536870912	; 0x20000000
20000e20:	01010202 	tsteq	r1, r2, lsl #4
	...
20000e44:	87800000 	strhi	r0, [r0, r0]
20000e48:	ffffffdf 			; <UNDEFINED> instruction: 0xffffffdf
20000e4c:	00c0e0fc 	strdeq	lr, [r0], #12
20000e50:	00000000 	andeq	r0, r0, r0
20000e54:	ffff3e00 			; <UNDEFINED> instruction: 0xffff3e00
20000e58:	00ffffff 	ldrshteq	pc, [pc], #255	; <UNPREDICTABLE>
	...
20000e68:	07030302 	streq	r0, [r3, -r2, lsl #6]
20000e6c:	03030707 	movweq	r0, #14087	; 0x3707
20000e70:	00000003 	andeq	r0, r0, r3
	...
20000e80:	ff7f0700 			; <UNDEFINED> instruction: 0xff7f0700
20000e84:	80e0feff 	strdhi	pc, [r0], #239	; 0xef	; <UNPREDICTABLE>
	...
20000eb0:	01000000 	mrseq	r0, (UNDEF: 0)
20000eb4:	01010101 	tsteq	r1, r1, lsl #2
20000eb8:	01010101 	tsteq	r1, r1, lsl #2
20000ebc:	00010101 	andeq	r0, r1, r1, lsl #2
20000ec0:	c0800000 	addgt	r0, r0, r0
20000ec4:	ffffe7c1 			; <UNDEFINED> instruction: 0xffffe7c1
20000ec8:	78fcffff 	ldmvc	ip!, {r0, r1, r2, r3, r4, r5, r6, r7, r8, r9, sl, fp, ip, sp, lr, pc}^
20000ecc:	40606070 	rsbmi	r6, r0, r0, ror r0
	...
20000eec:	06060202 	streq	r0, [r6], -r2, lsl #4
20000ef0:	07070706 	streq	r0, [r7, -r6, lsl #14]
20000ef4:	07070707 	streq	r0, [r7, -r7, lsl #14]
20000ef8:	00020707 	andeq	r0, r2, r7, lsl #14
	...

20000f14 <jake2>:
	...
20000fb8:	80800000 	addhi	r0, r0, r0
20000fbc:	c0808080 	addgt	r8, r0, r0, lsl #1
20000fc0:	c0c0c0c0 	sbcgt	ip, r0, r0, asr #1
20000fc4:	e0c0c0c0 	sbc	ip, r0, r0, asr #1
20000fc8:	e0e0e0e0 	rsc	lr, r0, r0, ror #1
20000fcc:	c0c0e0e0 	sbcgt	lr, r0, r0, ror #1
20000fd0:	80c0c0c0 	sbchi	ip, r0, r0, asr #1
20000fd4:	00008080 	andeq	r8, r0, r0, lsl #1
	...
20001008:	c0808000 	addgt	r8, r0, r0
2000100c:	e0e0c0c0 	rsc	ip, r0, r0, asr #1
20001010:	f0f0f0f0 			; <UNDEFINED> instruction: 0xf0f0f0f0
20001014:	f8f8f8f0 			; <UNDEFINED> instruction: 0xf8f8f8f0
20001018:	f8f8f8f8 			; <UNDEFINED> instruction: 0xf8f8f8f8
2000101c:	fcf8f8f8 	ldc2l	8, cr15, [r8], #992	; 0x3e0
20001020:	fefefcfc 	mrc2	12, 7, pc, cr14, cr12, {7}
20001024:	fffffffe 			; <UNDEFINED> instruction: 0xfffffffe
20001028:	ffffffff 			; <UNDEFINED> instruction: 0xffffffff
2000102c:	ffffffff 			; <UNDEFINED> instruction: 0xffffffff
20001030:	ffffffff 			; <UNDEFINED> instruction: 0xffffffff
20001034:	ffffffff 			; <UNDEFINED> instruction: 0xffffffff
20001038:	83878fdf 	orrhi	r8, r7, #892	; 0x37c
2000103c:	83838383 	orrhi	r8, r3, #201326594	; 0xc000002
20001040:	87030303 	strhi	r0, [r3, -r3, lsl #6]
20001044:	fefaff8d 	cdp2	15, 15, cr15, cr10, cr13, {4}
20001048:	f0f8f8fc 			; <UNDEFINED> instruction: 0xf0f8f8fc
2000104c:	000000c0 	andeq	r0, r0, r0, asr #1
	...
20001074:	fffffcf8 			; <UNDEFINED> instruction: 0xfffffcf8
20001078:	ffffffff 			; <UNDEFINED> instruction: 0xffffffff
2000107c:	ffffffff 			; <UNDEFINED> instruction: 0xffffffff
20001080:	ffffffff 			; <UNDEFINED> instruction: 0xffffffff
20001084:	ffffffff 			; <UNDEFINED> instruction: 0xffffffff
20001088:	ffffffff 			; <UNDEFINED> instruction: 0xffffffff
2000108c:	ffffffff 			; <UNDEFINED> instruction: 0xffffffff
20001090:	ffffffff 			; <UNDEFINED> instruction: 0xffffffff
20001094:	ffffffff 			; <UNDEFINED> instruction: 0xffffffff
20001098:	ffffffff 			; <UNDEFINED> instruction: 0xffffffff
2000109c:	ffffffff 			; <UNDEFINED> instruction: 0xffffffff
200010a0:	ffffffff 			; <UNDEFINED> instruction: 0xffffffff
200010a4:	ffffffff 			; <UNDEFINED> instruction: 0xffffffff
200010a8:	dfdfbfff 	svcle	0x00dfbfff
200010ac:	ff7fbfbf 			; <UNDEFINED> instruction: 0xff7fbfbf
200010b0:	7fffffff 	svcvc	0x00ffffff
200010b4:	0f0f0f0f 	svceq	0x000f0f0f
200010b8:	180f0f0f 	stmdane	pc, {r0, r1, r2, r3, r8, r9, sl, fp}	; <UNPREDICTABLE>
200010bc:	00000070 	andeq	r0, r0, r0, ror r0
	...
200010dc:	fffefcf0 			; <UNDEFINED> instruction: 0xfffefcf0
200010e0:	07070f0f 	streq	r0, [r7, -pc, lsl #30]
200010e4:	7f3f1f1f 	svcvc	0x003f1f1f
200010e8:	ffffff7f 			; <UNDEFINED> instruction: 0xffffff7f
200010ec:	ffffffff 			; <UNDEFINED> instruction: 0xffffffff
200010f0:	ffffffff 			; <UNDEFINED> instruction: 0xffffffff
200010f4:	ffffffff 			; <UNDEFINED> instruction: 0xffffffff
200010f8:	ffffffff 			; <UNDEFINED> instruction: 0xffffffff
200010fc:	ffffffff 			; <UNDEFINED> instruction: 0xffffffff
20001100:	ffffffff 			; <UNDEFINED> instruction: 0xffffffff
20001104:	ffffffff 			; <UNDEFINED> instruction: 0xffffffff
20001108:	ffffffff 			; <UNDEFINED> instruction: 0xffffffff
2000110c:	7f7f7f7f 	svcvc	0x007f7f7f
20001110:	3f3f3f3f 	svccc	0x003f3f3f
20001114:	3f1f1f1f 	svccc	0x001f1f1f
20001118:	efffffff 	svc	0x00ffffff
2000111c:	03030707 	movweq	r0, #14087	; 0x3707
20001120:	02020303 	andeq	r0, r2, #201326592	; 0xc000000
20001124:	00000100 	andeq	r0, r0, r0, lsl #2
	...
20001148:	87830000 	strhi	r0, [r3, r0]
2000114c:	f8feffdf 			; <UNDEFINED> instruction: 0xf8feffdf
20001150:	00c0e0f0 	strdeq	lr, [r0], #0
20001154:	00000000 	andeq	r0, r0, r0
20001158:	fffffd78 			; <UNDEFINED> instruction: 0xfffffd78
2000115c:	03078fff 	movweq	r8, #32767	; 0x7fff
20001160:	07030303 	streq	r0, [r3, -r3, lsl #6]
20001164:	07070707 	streq	r0, [r7, -r7, lsl #14]
20001168:	03070707 	movweq	r0, #30471	; 0x7707
2000116c:	07030303 	streq	r0, [r3, -r3, lsl #6]
20001170:	03030707 	movweq	r0, #14087	; 0x3707
20001174:	00000103 	andeq	r0, r0, r3, lsl #2
	...
20001184:	ff1f0000 			; <UNDEFINED> instruction: 0xff1f0000
20001188:	00f8ffff 	ldrshteq	pc, [r8], #255	; 0xff	; <UNPREDICTABLE>
	...
200011b8:	01010101 	tsteq	r1, r1, lsl #2
200011bc:	01010101 	tsteq	r1, r1, lsl #2
200011c0:	00000001 	andeq	r0, r0, r1
200011c4:	c1800000 	orrgt	r0, r0, r0
200011c8:	ffefe7c3 			; <UNDEFINED> instruction: 0xffefe7c3
200011cc:	78f8fcff 	ldmvc	r8!, {r0, r1, r2, r3, r4, r5, r6, r7, sl, fp, ip, sp, lr, pc}^
200011d0:	00606070 	rsbeq	r6, r0, r0, ror r0
	...
200011ec:	02020000 	andeq	r0, r2, #0
200011f0:	06020202 	streq	r0, [r2], -r2, lsl #4
200011f4:	07070706 	streq	r0, [r7, -r6, lsl #14]
200011f8:	07070707 	streq	r0, [r7, -r7, lsl #14]
200011fc:	00000707 	andeq	r0, r0, r7, lsl #14
	...

20001218 <jake3>:
	...
20001320:	e0c08000 	sbc	r8, r0, r0
20001324:	f8f0f0e0 			; <UNDEFINED> instruction: 0xf8f0f0e0
20001328:	fcf8f8f8 	ldc2l	8, cr15, [r8], #992	; 0x3e0
2000132c:	7c7c7cfc 	ldclvc	12, cr7, [ip], #-1008	; 0xfffffc10
20001330:	7c7c7c7c 	ldclvc	12, cr7, [ip], #-496	; 0xfffffe10
20001334:	fcfc7c7c 	ldc2l	12, cr7, [ip], #496	; 0x1f0
20001338:	fcfcfcfc 	ldc2l	12, cr15, [ip], #1008	; 0x3f0
2000133c:	f8f8f8fc 			; <UNDEFINED> instruction: 0xf8f8f8fc
20001340:	f0f0f0f8 			; <UNDEFINED> instruction: 0xf0f0f0f8
20001344:	80c0e0e0 	sbchi	lr, r0, r0, ror #1
20001348:	00008080 	andeq	r8, r0, r0, lsl #1
	...
20001384:	80808000 	addhi	r8, r0, r0
20001388:	f0c0c080 			; <UNDEFINED> instruction: 0xf0c0c080
2000138c:	fffffef8 			; <UNDEFINED> instruction: 0xfffffef8
20001390:	ffffffff 			; <UNDEFINED> instruction: 0xffffffff
20001394:	ffffffff 			; <UNDEFINED> instruction: 0xffffffff
20001398:	f0f0f8ff 			; <UNDEFINED> instruction: 0xf0f0f8ff
2000139c:	f0e0e0e0 			; <UNDEFINED> instruction: 0xf0e0e0e0
200013a0:	f8f8f8f0 			; <UNDEFINED> instruction: 0xf8f8f8f0
200013a4:	fffffffc 			; <UNDEFINED> instruction: 0xfffffffc
200013a8:	ffffffff 			; <UNDEFINED> instruction: 0xffffffff
200013ac:	f1ffffff 			; <UNDEFINED> instruction: 0xf1ffffff
200013b0:	c0e0e0f1 	strdgt	lr, [r0], #1	; <UNPREDICTABLE>
200013b4:	61e1e0c0 	mvnvs	lr, r0, asr #1
200013b8:	00040331 	andeq	r0, r4, r1, lsr r3
	...
200013dc:	e0e0c080 	rsc	ip, r0, r0, lsl #1
200013e0:	e0e0e0e0 	rsc	lr, r0, r0, ror #1
200013e4:	c0c0e0e0 	sbcgt	lr, r0, r0, ror #1
200013e8:	fcf8f0e0 	ldc2l	0, cr15, [r8], #896	; 0x380
200013ec:	fffefefc 			; <UNDEFINED> instruction: 0xfffefefc
200013f0:	ffffffff 			; <UNDEFINED> instruction: 0xffffffff
200013f4:	ffffffff 			; <UNDEFINED> instruction: 0xffffffff
200013f8:	ffffffff 			; <UNDEFINED> instruction: 0xffffffff
200013fc:	ffffffff 			; <UNDEFINED> instruction: 0xffffffff
20001400:	ffffffff 			; <UNDEFINED> instruction: 0xffffffff
20001404:	ffffffff 			; <UNDEFINED> instruction: 0xffffffff
20001408:	ffffffff 			; <UNDEFINED> instruction: 0xffffffff
2000140c:	ffffffff 			; <UNDEFINED> instruction: 0xffffffff
20001410:	fdffffff 	ldc2l	15, cr15, [pc, #1020]!	; 20001814 <jake4+0x2f8>
20001414:	fefffefe 	mrc2	14, 7, pc, cr15, cr14, {7}
20001418:	fffcfeff 			; <UNDEFINED> instruction: 0xfffcfeff
2000141c:	ffffffff 			; <UNDEFINED> instruction: 0xffffffff
20001420:	ffffffff 			; <UNDEFINED> instruction: 0xffffffff
20001424:	00000003 	andeq	r0, r0, r3
	...
20001448:	07010000 	streq	r0, [r1, -r0]
2000144c:	bf9f1f0f 	svclt	0x009f1f0f
20001450:	f1f8fcfe 			; <UNDEFINED> instruction: 0xf1f8fcfe
20001454:	9fc7e3e1 	svcls	0x00c7e3e1
20001458:	ffff3f1f 			; <UNDEFINED> instruction: 0xffff3f1f
2000145c:	ffffffff 			; <UNDEFINED> instruction: 0xffffffff
20001460:	ffffffff 			; <UNDEFINED> instruction: 0xffffffff
20001464:	ffffffff 			; <UNDEFINED> instruction: 0xffffffff
20001468:	ffffffff 			; <UNDEFINED> instruction: 0xffffffff
2000146c:	ffffffff 			; <UNDEFINED> instruction: 0xffffffff
20001470:	ffffffff 			; <UNDEFINED> instruction: 0xffffffff
20001474:	ffffffff 			; <UNDEFINED> instruction: 0xffffffff
20001478:	7fffffff 	svcvc	0x00ffffff
2000147c:	7f7f7f7f 	svcvc	0x007f7f7f
20001480:	7f7f7f7f 	svcvc	0x007f7f7f
20001484:	1f3f3f7f 	svcne	0x003f3f7f
20001488:	f3070f1f 	vmaxnm.f32	d0, d7, d15
2000148c:	3fffffff 	svccc	0x00ffffff
20001490:	00000007 	andeq	r0, r0, r7
	...
200014b8:	01000000 	mrseq	r0, (UNDEF: 0)
200014bc:	01010101 	tsteq	r1, r1, lsl #2
200014c0:	01010101 	tsteq	r1, r1, lsl #2
200014c4:	00000101 	andeq	r0, r0, r1, lsl #2
200014c8:	cf878301 	svcgt	0x00878301
200014cc:	ffffffff 			; <UNDEFINED> instruction: 0xffffffff
200014d0:	7ff7ffff 	svcvc	0x00f7ffff
200014d4:	67676777 			; <UNDEFINED> instruction: 0x67676777
200014d8:	03030307 	movweq	r0, #13063	; 0x3307
200014dc:	03030303 	movweq	r0, #13059	; 0x3303
200014e0:	01010303 	tsteq	r1, r3, lsl #6
	...
200014f4:	06020000 	streq	r0, [r2], -r0
200014f8:	07070707 	streq	r0, [r7, -r7, lsl #14]
200014fc:	07070707 	streq	r0, [r7, -r7, lsl #14]
20001500:	00020307 	andeq	r0, r2, r7, lsl #6
	...

2000151c <jake4>:
	...
200015bc:	80000000 	andhi	r0, r0, r0
200015c0:	c0c0c080 	sbcgt	ip, r0, r0, lsl #1
200015c4:	e0e0e0e0 	rsc	lr, r0, r0, ror #1
200015c8:	e0e0e0e0 	rsc	lr, r0, r0, ror #1
200015cc:	e0e0e0e0 	rsc	lr, r0, r0, ror #1
200015d0:	e0e0e0e0 	rsc	lr, r0, r0, ror #1
200015d4:	c0c0c0e0 	sbcgt	ip, r0, r0, ror #1
200015d8:	00808080 	addeq	r8, r0, r0, lsl #1
	...
20001620:	c0800000 	addgt	r0, r0, r0
20001624:	f8f0e0c0 			; <UNDEFINED> instruction: 0xf8f0e0c0
20001628:	fffefef8 			; <UNDEFINED> instruction: 0xfffefef8
2000162c:	ffffffff 			; <UNDEFINED> instruction: 0xffffffff
20001630:	ffffffff 			; <UNDEFINED> instruction: 0xffffffff
20001634:	018787ff 	strdeq	r8, [r7, pc]
20001638:	81810101 	orrhi	r0, r1, r1, lsl #2
2000163c:	87c18181 	strbhi	r8, [r1, r1, lsl #3]
20001640:	ffffffc7 			; <UNDEFINED> instruction: 0xffffffc7
20001644:	ffffffff 			; <UNDEFINED> instruction: 0xffffffff
20001648:	7e7f7fff 	mrcvc	15, 3, r7, cr15, cr15, {7}
2000164c:	7070787e 	rsbsvc	r7, r0, lr, ror r8
20001650:	80c04060 	sbchi	r4, r0, r0, rrx
	...
2000167c:	e0c08000 	sbc	r8, r0, r0
20001680:	f8f0f0e0 			; <UNDEFINED> instruction: 0xf8f0f0e0
20001684:	fef8f8f8 	mrc2	8, 7, pc, cr8, cr8, {7}
20001688:	fefefefe 	mrc2	14, 7, pc, cr14, cr14, {7}
2000168c:	fffffffe 			; <UNDEFINED> instruction: 0xfffffffe
20001690:	ffffffff 			; <UNDEFINED> instruction: 0xffffffff
20001694:	ffffffff 			; <UNDEFINED> instruction: 0xffffffff
20001698:	ffffffff 			; <UNDEFINED> instruction: 0xffffffff
2000169c:	ffffffff 			; <UNDEFINED> instruction: 0xffffffff
200016a0:	ffffffff 			; <UNDEFINED> instruction: 0xffffffff
200016a4:	ffffffff 			; <UNDEFINED> instruction: 0xffffffff
200016a8:	cfffffff 	svcgt	0x00ffffff
200016ac:	f7ffe7ff 			; <UNDEFINED> instruction: 0xf7ffe7ff
200016b0:	ffff9f87 			; <UNDEFINED> instruction: 0xffff9f87
200016b4:	f8feffff 			; <UNDEFINED> instruction: 0xf8feffff
200016b8:	e0e0e0f0 	strd	lr, [r0], #0	; <UNPREDICTABLE>
200016bc:	10306060 	eorsne	r6, r0, r0, rrx
200016c0:	00000708 	andeq	r0, r0, r8, lsl #14
	...
200016e0:	e0e00000 	rsc	r0, r0, r0
200016e4:	70f0f0f0 	ldrshtvc	pc, [r0], #0	; <UNPREDICTABLE>
200016e8:	ff7f7070 			; <UNDEFINED> instruction: 0xff7f7070
200016ec:	ffffffff 			; <UNDEFINED> instruction: 0xffffffff
200016f0:	ffffffff 			; <UNDEFINED> instruction: 0xffffffff
200016f4:	ffffffff 			; <UNDEFINED> instruction: 0xffffffff
200016f8:	ffffffff 			; <UNDEFINED> instruction: 0xffffffff
200016fc:	ffffffff 			; <UNDEFINED> instruction: 0xffffffff
20001700:	ffffffff 			; <UNDEFINED> instruction: 0xffffffff
20001704:	ffffffff 			; <UNDEFINED> instruction: 0xffffffff
20001708:	ffffffff 			; <UNDEFINED> instruction: 0xffffffff
2000170c:	ffffffff 			; <UNDEFINED> instruction: 0xffffffff
20001710:	ffffffff 			; <UNDEFINED> instruction: 0xffffffff
20001714:	ffffffff 			; <UNDEFINED> instruction: 0xffffffff
20001718:	ffffffff 			; <UNDEFINED> instruction: 0xffffffff
2000171c:	ffffffff 			; <UNDEFINED> instruction: 0xffffffff
20001720:	ffffff7f 			; <UNDEFINED> instruction: 0xffffff7f
20001724:	0707ffff 			; <UNDEFINED> instruction: 0x0707ffff
20001728:	00000001 	andeq	r0, r0, r1
	...
20001750:	7f3f0f07 	svcvc	0x003f0f07
20001754:	f0f8fcff 			; <UNDEFINED> instruction: 0xf0f8fcff
20001758:	0783c0e0 	streq	ip, [r3, r0, ror #1]
2000175c:	ff1f0f0f 			; <UNDEFINED> instruction: 0xff1f0f0f
20001760:	ffffffff 			; <UNDEFINED> instruction: 0xffffffff
20001764:	ffffffff 			; <UNDEFINED> instruction: 0xffffffff
20001768:	ffffffff 			; <UNDEFINED> instruction: 0xffffffff
2000176c:	ffffffff 			; <UNDEFINED> instruction: 0xffffffff
20001770:	ffffffff 			; <UNDEFINED> instruction: 0xffffffff
20001774:	ffffffff 			; <UNDEFINED> instruction: 0xffffffff
20001778:	ffffffff 			; <UNDEFINED> instruction: 0xffffffff
2000177c:	7fffffff 	svcvc	0x00ffffff
20001780:	3f3f7f7f 	svccc	0x003f7f7f
20001784:	0f0f1f1f 	svceq	0x000f1f1f
20001788:	0303070f 	movweq	r0, #14095	; 0x370f
2000178c:	ff000000 			; <UNDEFINED> instruction: 0xff000000
20001790:	7fffffff 	svcvc	0x00ffffff
	...
200017bc:	04000000 	streq	r0, [r0], #-0
200017c0:	07070707 	streq	r0, [r7, -r7, lsl #14]
200017c4:	07070707 	streq	r0, [r7, -r7, lsl #14]
200017c8:	00000707 	andeq	r0, r0, r7, lsl #14
200017cc:	1f0f0700 	svcne	0x000f0700
200017d0:	f8ffffbf 			; <UNDEFINED> instruction: 0xf8ffffbf
200017d4:	c7e7e3f8 			; <UNDEFINED> instruction: 0xc7e7e3f8
200017d8:	878787c7 	strhi	r8, [r7, r7, asr #15]
200017dc:	0f0f0f07 	svceq	0x000f0f07
200017e0:	0707070f 	streq	r0, [r7, -pc, lsl #14]
200017e4:	03030303 	movweq	r0, #13059	; 0x3303
200017e8:	01010303 	tsteq	r1, r3, lsl #6
	...
200017f8:	18080808 	stmdane	r8, {r3, fp}
200017fc:	1f1f1f18 	svcne	0x001f1f18
20001800:	1c1c1c1f 	ldcne	12, cr1, [ip], {31}
20001804:	00081c1c 	andeq	r1, r8, ip, lsl ip
	...

20001820 <jake0>:
	...
200018b0:	80800000 	addhi	r0, r0, r0
200018b4:	80808080 	addhi	r8, r0, r0, lsl #1
200018b8:	80808080 	addhi	r8, r0, r0, lsl #1
200018bc:	c0808080 	addgt	r8, r0, r0, lsl #1
200018c0:	c0c0c0c0 	sbcgt	ip, r0, r0, asr #1
200018c4:	e0e0e0e0 	rsc	lr, r0, r0, ror #1
200018c8:	f0f0e0e0 			; <UNDEFINED> instruction: 0xf0f0e0e0
200018cc:	f0f0f0f0 			; <UNDEFINED> instruction: 0xf0f0f0f0
200018d0:	f0f0f0f0 			; <UNDEFINED> instruction: 0xf0f0f0f0
200018d4:	f0f0f0f0 			; <UNDEFINED> instruction: 0xf0f0f0f0
200018d8:	f0f0f0f0 			; <UNDEFINED> instruction: 0xf0f0f0f0
200018dc:	e0e0f0f0 	strd	pc, [r0], #0	; <UNPREDICTABLE>
200018e0:	e060e0e0 	rsb	lr, r0, r0, ror #1
200018e4:	0080c0c0 	addeq	ip, r0, r0, asr #1
	...
20001910:	e0e08000 	rsc	r8, r0, r0
20001914:	fcf8f8f0 	ldc2l	8, cr15, [r8], #960	; 0x3c0
20001918:	fffefefe 			; <UNDEFINED> instruction: 0xfffefefe
2000191c:	ffffffff 			; <UNDEFINED> instruction: 0xffffffff
20001920:	ffffffff 			; <UNDEFINED> instruction: 0xffffffff
20001924:	ffffffff 			; <UNDEFINED> instruction: 0xffffffff
20001928:	ffffffff 			; <UNDEFINED> instruction: 0xffffffff
2000192c:	ffffffff 			; <UNDEFINED> instruction: 0xffffffff
20001930:	ffffffff 			; <UNDEFINED> instruction: 0xffffffff
20001934:	ffffffff 			; <UNDEFINED> instruction: 0xffffffff
20001938:	ffffffff 			; <UNDEFINED> instruction: 0xffffffff
2000193c:	ffffffff 			; <UNDEFINED> instruction: 0xffffffff
20001940:	ffffffff 			; <UNDEFINED> instruction: 0xffffffff
20001944:	ffffffff 			; <UNDEFINED> instruction: 0xffffffff
20001948:	c3c6cfff 	bicgt	ip, r6, #1020	; 0x3fc
2000194c:	038383c3 	orreq	r8, r3, #201326595	; 0xc000003
20001950:	87830303 	strhi	r0, [r3, r3, lsl #6]
20001954:	ccfeffcf 	ldclgt	15, cr15, [lr], #828	; 0x33c
20001958:	0000e0f8 	strdeq	lr, [r0], -r8
	...
2000197c:	fff0c080 			; <UNDEFINED> instruction: 0xfff0c080
20001980:	ffffffff 			; <UNDEFINED> instruction: 0xffffffff
20001984:	ffffffff 			; <UNDEFINED> instruction: 0xffffffff
20001988:	ffffffff 			; <UNDEFINED> instruction: 0xffffffff
2000198c:	ffffffff 			; <UNDEFINED> instruction: 0xffffffff
20001990:	ffffffff 			; <UNDEFINED> instruction: 0xffffffff
20001994:	ffffffff 			; <UNDEFINED> instruction: 0xffffffff
20001998:	ffffffff 			; <UNDEFINED> instruction: 0xffffffff
2000199c:	ffffffff 			; <UNDEFINED> instruction: 0xffffffff
200019a0:	ffffffff 			; <UNDEFINED> instruction: 0xffffffff
200019a4:	ffffffff 			; <UNDEFINED> instruction: 0xffffffff
200019a8:	ffffffff 			; <UNDEFINED> instruction: 0xffffffff
200019ac:	ffffffff 			; <UNDEFINED> instruction: 0xffffffff
200019b0:	ffffffff 			; <UNDEFINED> instruction: 0xffffffff
200019b4:	ffffefdf 			; <UNDEFINED> instruction: 0xffffefdf
200019b8:	ffbfffbf 			; <UNDEFINED> instruction: 0xffbfffbf
200019bc:	1f3f6fff 	svcne	0x003f6fff
200019c0:	1f1f1f1f 	svcne	0x001f1f1f
200019c4:	01f7ff1f 	mvnseq	pc, pc, lsl pc	; <UNPREDICTABLE>
	...
200019e8:	fffffef0 			; <UNDEFINED> instruction: 0xfffffef0
200019ec:	0003ffff 	strdeq	pc, [r3], -pc	; <UNPREDICTABLE>
200019f0:	07070301 	streq	r0, [r7, -r1, lsl #6]
200019f4:	1f1f0f0f 	svcne	0x001f0f0f
200019f8:	ffffffdf 			; <UNDEFINED> instruction: 0xffffffdf
200019fc:	7f7fffff 	svcvc	0x007fffff
20001a00:	7f7f7f7f 	svcvc	0x007f7f7f
20001a04:	7f7f7f7f 	svcvc	0x007f7f7f
20001a08:	7f7f7f7f 	svcvc	0x007f7f7f
20001a0c:	ffff3f3f 			; <UNDEFINED> instruction: 0xffff3f3f
20001a10:	1fffffff 	svcne	0x00ffffff
20001a14:	0f0f0f1f 	svceq	0x000f0f1f
20001a18:	07070f0f 	streq	r0, [r7, -pc, lsl #30]
20001a1c:	07070707 	streq	r0, [r7, -r7, lsl #14]
20001a20:	ffff0f07 			; <UNDEFINED> instruction: 0xffff0f07
20001a24:	03e3ffff 	mvneq	pc, #1020	; 0x3fc
20001a28:	02030707 	andeq	r0, r3, #1835008	; 0x1c0000
20001a2c:	02000202 	andeq	r0, r0, #536870912	; 0x20000000
20001a30:	01010202 	tsteq	r1, r2, lsl #4
	...
20001a54:	87800000 	strhi	r0, [r0, r0]
20001a58:	ffffffdf 			; <UNDEFINED> instruction: 0xffffffdf
20001a5c:	00c0e0fc 	strdeq	lr, [r0], #12
20001a60:	00000000 	andeq	r0, r0, r0
20001a64:	ffff3e00 			; <UNDEFINED> instruction: 0xffff3e00
20001a68:	00ffffff 	ldrshteq	pc, [pc], #255	; <UNPREDICTABLE>
	...
20001a78:	07030302 	streq	r0, [r3, -r2, lsl #6]
20001a7c:	03030707 	movweq	r0, #14087	; 0x3707
20001a80:	00000003 	andeq	r0, r0, r3
	...
20001a90:	ff7f0700 			; <UNDEFINED> instruction: 0xff7f0700
20001a94:	80e0feff 	strdhi	pc, [r0], #239	; 0xef	; <UNPREDICTABLE>
	...
20001ac0:	01000000 	mrseq	r0, (UNDEF: 0)
20001ac4:	01010101 	tsteq	r1, r1, lsl #2
20001ac8:	01010101 	tsteq	r1, r1, lsl #2
20001acc:	00010101 	andeq	r0, r1, r1, lsl #2
20001ad0:	c0800000 	addgt	r0, r0, r0
20001ad4:	ffffe7c1 			; <UNDEFINED> instruction: 0xffffe7c1
20001ad8:	78fcffff 	ldmvc	ip!, {r0, r1, r2, r3, r4, r5, r6, r7, r8, r9, sl, fp, ip, sp, lr, pc}^
20001adc:	40606070 	rsbmi	r6, r0, r0, ror r0
	...
20001afc:	06060202 	streq	r0, [r6], -r2, lsl #4
20001b00:	07070706 	streq	r0, [r7, -r6, lsl #14]
20001b04:	07070707 	streq	r0, [r7, -r7, lsl #14]
20001b08:	00020707 	andeq	r0, r2, r7, lsl #14
	...

20001b24 <jake2>:
	...
20001bc8:	80800000 	addhi	r0, r0, r0
20001bcc:	c0808080 	addgt	r8, r0, r0, lsl #1
20001bd0:	c0c0c0c0 	sbcgt	ip, r0, r0, asr #1
20001bd4:	e0c0c0c0 	sbc	ip, r0, r0, asr #1
20001bd8:	e0e0e0e0 	rsc	lr, r0, r0, ror #1
20001bdc:	c0c0e0e0 	sbcgt	lr, r0, r0, ror #1
20001be0:	80c0c0c0 	sbchi	ip, r0, r0, asr #1
20001be4:	00008080 	andeq	r8, r0, r0, lsl #1
	...
20001c18:	c0808000 	addgt	r8, r0, r0
20001c1c:	e0e0c0c0 	rsc	ip, r0, r0, asr #1
20001c20:	f0f0f0f0 			; <UNDEFINED> instruction: 0xf0f0f0f0
20001c24:	f8f8f8f0 			; <UNDEFINED> instruction: 0xf8f8f8f0
20001c28:	f8f8f8f8 			; <UNDEFINED> instruction: 0xf8f8f8f8
20001c2c:	fcf8f8f8 	ldc2l	8, cr15, [r8], #992	; 0x3e0
20001c30:	fefefcfc 	mrc2	12, 7, pc, cr14, cr12, {7}
20001c34:	fffffffe 			; <UNDEFINED> instruction: 0xfffffffe
20001c38:	ffffffff 			; <UNDEFINED> instruction: 0xffffffff
20001c3c:	ffffffff 			; <UNDEFINED> instruction: 0xffffffff
20001c40:	ffffffff 			; <UNDEFINED> instruction: 0xffffffff
20001c44:	ffffffff 			; <UNDEFINED> instruction: 0xffffffff
20001c48:	83878fdf 	orrhi	r8, r7, #892	; 0x37c
20001c4c:	83838383 	orrhi	r8, r3, #201326594	; 0xc000002
20001c50:	87030303 	strhi	r0, [r3, -r3, lsl #6]
20001c54:	fefaff8d 	cdp2	15, 15, cr15, cr10, cr13, {4}
20001c58:	f0f8f8fc 			; <UNDEFINED> instruction: 0xf0f8f8fc
20001c5c:	000000c0 	andeq	r0, r0, r0, asr #1
	...
20001c84:	fffffcf8 			; <UNDEFINED> instruction: 0xfffffcf8
20001c88:	ffffffff 			; <UNDEFINED> instruction: 0xffffffff
20001c8c:	ffffffff 			; <UNDEFINED> instruction: 0xffffffff
20001c90:	ffffffff 			; <UNDEFINED> instruction: 0xffffffff
20001c94:	ffffffff 			; <UNDEFINED> instruction: 0xffffffff
20001c98:	ffffffff 			; <UNDEFINED> instruction: 0xffffffff
20001c9c:	ffffffff 			; <UNDEFINED> instruction: 0xffffffff
20001ca0:	ffffffff 			; <UNDEFINED> instruction: 0xffffffff
20001ca4:	ffffffff 			; <UNDEFINED> instruction: 0xffffffff
20001ca8:	ffffffff 			; <UNDEFINED> instruction: 0xffffffff
20001cac:	ffffffff 			; <UNDEFINED> instruction: 0xffffffff
20001cb0:	ffffffff 			; <UNDEFINED> instruction: 0xffffffff
20001cb4:	ffffffff 			; <UNDEFINED> instruction: 0xffffffff
20001cb8:	dfdfbfff 	svcle	0x00dfbfff
20001cbc:	ff7fbfbf 			; <UNDEFINED> instruction: 0xff7fbfbf
20001cc0:	7fffffff 	svcvc	0x00ffffff
20001cc4:	0f0f0f0f 	svceq	0x000f0f0f
20001cc8:	180f0f0f 	stmdane	pc, {r0, r1, r2, r3, r8, r9, sl, fp}	; <UNPREDICTABLE>
20001ccc:	00000070 	andeq	r0, r0, r0, ror r0
	...
20001cec:	fffefcf0 			; <UNDEFINED> instruction: 0xfffefcf0
20001cf0:	07070f0f 	streq	r0, [r7, -pc, lsl #30]
20001cf4:	7f3f1f1f 	svcvc	0x003f1f1f
20001cf8:	ffffff7f 			; <UNDEFINED> instruction: 0xffffff7f
20001cfc:	ffffffff 			; <UNDEFINED> instruction: 0xffffffff
20001d00:	ffffffff 			; <UNDEFINED> instruction: 0xffffffff
20001d04:	ffffffff 			; <UNDEFINED> instruction: 0xffffffff
20001d08:	ffffffff 			; <UNDEFINED> instruction: 0xffffffff
20001d0c:	ffffffff 			; <UNDEFINED> instruction: 0xffffffff
20001d10:	ffffffff 			; <UNDEFINED> instruction: 0xffffffff
20001d14:	ffffffff 			; <UNDEFINED> instruction: 0xffffffff
20001d18:	ffffffff 			; <UNDEFINED> instruction: 0xffffffff
20001d1c:	7f7f7f7f 	svcvc	0x007f7f7f
20001d20:	3f3f3f3f 	svccc	0x003f3f3f
20001d24:	3f1f1f1f 	svccc	0x001f1f1f
20001d28:	efffffff 	svc	0x00ffffff
20001d2c:	03030707 	movweq	r0, #14087	; 0x3707
20001d30:	02020303 	andeq	r0, r2, #201326592	; 0xc000000
20001d34:	00000100 	andeq	r0, r0, r0, lsl #2
	...
20001d58:	87830000 	strhi	r0, [r3, r0]
20001d5c:	f8feffdf 			; <UNDEFINED> instruction: 0xf8feffdf
20001d60:	00c0e0f0 	strdeq	lr, [r0], #0
20001d64:	00000000 	andeq	r0, r0, r0
20001d68:	fffffd78 			; <UNDEFINED> instruction: 0xfffffd78
20001d6c:	03078fff 	movweq	r8, #32767	; 0x7fff
20001d70:	07030303 	streq	r0, [r3, -r3, lsl #6]
20001d74:	07070707 	streq	r0, [r7, -r7, lsl #14]
20001d78:	03070707 	movweq	r0, #30471	; 0x7707
20001d7c:	07030303 	streq	r0, [r3, -r3, lsl #6]
20001d80:	03030707 	movweq	r0, #14087	; 0x3707
20001d84:	00000103 	andeq	r0, r0, r3, lsl #2
	...
20001d94:	ff1f0000 			; <UNDEFINED> instruction: 0xff1f0000
20001d98:	00f8ffff 	ldrshteq	pc, [r8], #255	; 0xff	; <UNPREDICTABLE>
	...
20001dc8:	01010101 	tsteq	r1, r1, lsl #2
20001dcc:	01010101 	tsteq	r1, r1, lsl #2
20001dd0:	00000001 	andeq	r0, r0, r1
20001dd4:	c1800000 	orrgt	r0, r0, r0
20001dd8:	ffefe7c3 			; <UNDEFINED> instruction: 0xffefe7c3
20001ddc:	78f8fcff 	ldmvc	r8!, {r0, r1, r2, r3, r4, r5, r6, r7, sl, fp, ip, sp, lr, pc}^
20001de0:	00606070 	rsbeq	r6, r0, r0, ror r0
	...
20001dfc:	02020000 	andeq	r0, r2, #0
20001e00:	06020202 	streq	r0, [r2], -r2, lsl #4
20001e04:	07070706 	streq	r0, [r7, -r6, lsl #14]
20001e08:	07070707 	streq	r0, [r7, -r7, lsl #14]
20001e0c:	00000707 	andeq	r0, r0, r7, lsl #14
	...

20001e28 <jake3>:
	...
20001f30:	e0c08000 	sbc	r8, r0, r0
20001f34:	f8f0f0e0 			; <UNDEFINED> instruction: 0xf8f0f0e0
20001f38:	fcf8f8f8 	ldc2l	8, cr15, [r8], #992	; 0x3e0
20001f3c:	7c7c7cfc 	ldclvc	12, cr7, [ip], #-1008	; 0xfffffc10
20001f40:	7c7c7c7c 	ldclvc	12, cr7, [ip], #-496	; 0xfffffe10
20001f44:	fcfc7c7c 	ldc2l	12, cr7, [ip], #496	; 0x1f0
20001f48:	fcfcfcfc 	ldc2l	12, cr15, [ip], #1008	; 0x3f0
20001f4c:	f8f8f8fc 			; <UNDEFINED> instruction: 0xf8f8f8fc
20001f50:	f0f0f0f8 			; <UNDEFINED> instruction: 0xf0f0f0f8
20001f54:	80c0e0e0 	sbchi	lr, r0, r0, ror #1
20001f58:	00008080 	andeq	r8, r0, r0, lsl #1
	...
20001f94:	80808000 	addhi	r8, r0, r0
20001f98:	f0c0c080 			; <UNDEFINED> instruction: 0xf0c0c080
20001f9c:	fffffef8 			; <UNDEFINED> instruction: 0xfffffef8
20001fa0:	ffffffff 			; <UNDEFINED> instruction: 0xffffffff
20001fa4:	ffffffff 			; <UNDEFINED> instruction: 0xffffffff
20001fa8:	f0f0f8ff 			; <UNDEFINED> instruction: 0xf0f0f8ff
20001fac:	f0e0e0e0 			; <UNDEFINED> instruction: 0xf0e0e0e0
20001fb0:	f8f8f8f0 			; <UNDEFINED> instruction: 0xf8f8f8f0
20001fb4:	fffffffc 			; <UNDEFINED> instruction: 0xfffffffc
20001fb8:	ffffffff 			; <UNDEFINED> instruction: 0xffffffff
20001fbc:	f1ffffff 			; <UNDEFINED> instruction: 0xf1ffffff
20001fc0:	c0e0e0f1 	strdgt	lr, [r0], #1	; <UNPREDICTABLE>
20001fc4:	61e1e0c0 	mvnvs	lr, r0, asr #1
20001fc8:	00040331 	andeq	r0, r4, r1, lsr r3
	...
20001fec:	e0e0c080 	rsc	ip, r0, r0, lsl #1
20001ff0:	e0e0e0e0 	rsc	lr, r0, r0, ror #1
20001ff4:	c0c0e0e0 	sbcgt	lr, r0, r0, ror #1
20001ff8:	fcf8f0e0 	ldc2l	0, cr15, [r8], #896	; 0x380
20001ffc:	fffefefc 			; <UNDEFINED> instruction: 0xfffefefc
20002000:	ffffffff 			; <UNDEFINED> instruction: 0xffffffff
20002004:	ffffffff 			; <UNDEFINED> instruction: 0xffffffff
20002008:	ffffffff 			; <UNDEFINED> instruction: 0xffffffff
2000200c:	ffffffff 			; <UNDEFINED> instruction: 0xffffffff
20002010:	ffffffff 			; <UNDEFINED> instruction: 0xffffffff
20002014:	ffffffff 			; <UNDEFINED> instruction: 0xffffffff
20002018:	ffffffff 			; <UNDEFINED> instruction: 0xffffffff
2000201c:	ffffffff 			; <UNDEFINED> instruction: 0xffffffff
20002020:	fdffffff 	ldc2l	15, cr15, [pc, #1020]!	; 20002424 <jake4+0x2f8>
20002024:	fefffefe 	mrc2	14, 7, pc, cr15, cr14, {7}
20002028:	fffcfeff 			; <UNDEFINED> instruction: 0xfffcfeff
2000202c:	ffffffff 			; <UNDEFINED> instruction: 0xffffffff
20002030:	ffffffff 			; <UNDEFINED> instruction: 0xffffffff
20002034:	00000003 	andeq	r0, r0, r3
	...
20002058:	07010000 	streq	r0, [r1, -r0]
2000205c:	bf9f1f0f 	svclt	0x009f1f0f
20002060:	f1f8fcfe 			; <UNDEFINED> instruction: 0xf1f8fcfe
20002064:	9fc7e3e1 	svcls	0x00c7e3e1
20002068:	ffff3f1f 			; <UNDEFINED> instruction: 0xffff3f1f
2000206c:	ffffffff 			; <UNDEFINED> instruction: 0xffffffff
20002070:	ffffffff 			; <UNDEFINED> instruction: 0xffffffff
20002074:	ffffffff 			; <UNDEFINED> instruction: 0xffffffff
20002078:	ffffffff 			; <UNDEFINED> instruction: 0xffffffff
2000207c:	ffffffff 			; <UNDEFINED> instruction: 0xffffffff
20002080:	ffffffff 			; <UNDEFINED> instruction: 0xffffffff
20002084:	ffffffff 			; <UNDEFINED> instruction: 0xffffffff
20002088:	7fffffff 	svcvc	0x00ffffff
2000208c:	7f7f7f7f 	svcvc	0x007f7f7f
20002090:	7f7f7f7f 	svcvc	0x007f7f7f
20002094:	1f3f3f7f 	svcne	0x003f3f7f
20002098:	f3070f1f 	vmaxnm.f32	d0, d7, d15
2000209c:	3fffffff 	svccc	0x00ffffff
200020a0:	00000007 	andeq	r0, r0, r7
	...
200020c8:	01000000 	mrseq	r0, (UNDEF: 0)
200020cc:	01010101 	tsteq	r1, r1, lsl #2
200020d0:	01010101 	tsteq	r1, r1, lsl #2
200020d4:	00000101 	andeq	r0, r0, r1, lsl #2
200020d8:	cf878301 	svcgt	0x00878301
200020dc:	ffffffff 			; <UNDEFINED> instruction: 0xffffffff
200020e0:	7ff7ffff 	svcvc	0x00f7ffff
200020e4:	67676777 			; <UNDEFINED> instruction: 0x67676777
200020e8:	03030307 	movweq	r0, #13063	; 0x3307
200020ec:	03030303 	movweq	r0, #13059	; 0x3303
200020f0:	01010303 	tsteq	r1, r3, lsl #6
	...
20002104:	06020000 	streq	r0, [r2], -r0
20002108:	07070707 	streq	r0, [r7, -r7, lsl #14]
2000210c:	07070707 	streq	r0, [r7, -r7, lsl #14]
20002110:	00020307 	andeq	r0, r2, r7, lsl #6
	...

2000212c <jake4>:
	...
200021cc:	80000000 	andhi	r0, r0, r0
200021d0:	c0c0c080 	sbcgt	ip, r0, r0, lsl #1
200021d4:	e0e0e0e0 	rsc	lr, r0, r0, ror #1
200021d8:	e0e0e0e0 	rsc	lr, r0, r0, ror #1
200021dc:	e0e0e0e0 	rsc	lr, r0, r0, ror #1
200021e0:	e0e0e0e0 	rsc	lr, r0, r0, ror #1
200021e4:	c0c0c0e0 	sbcgt	ip, r0, r0, ror #1
200021e8:	00808080 	addeq	r8, r0, r0, lsl #1
	...
20002230:	c0800000 	addgt	r0, r0, r0
20002234:	f8f0e0c0 			; <UNDEFINED> instruction: 0xf8f0e0c0
20002238:	fffefef8 			; <UNDEFINED> instruction: 0xfffefef8
2000223c:	ffffffff 			; <UNDEFINED> instruction: 0xffffffff
20002240:	ffffffff 			; <UNDEFINED> instruction: 0xffffffff
20002244:	018787ff 	strdeq	r8, [r7, pc]
20002248:	81810101 	orrhi	r0, r1, r1, lsl #2
2000224c:	87c18181 	strbhi	r8, [r1, r1, lsl #3]
20002250:	ffffffc7 			; <UNDEFINED> instruction: 0xffffffc7
20002254:	ffffffff 			; <UNDEFINED> instruction: 0xffffffff
20002258:	7e7f7fff 	mrcvc	15, 3, r7, cr15, cr15, {7}
2000225c:	7070787e 	rsbsvc	r7, r0, lr, ror r8
20002260:	80c04060 	sbchi	r4, r0, r0, rrx
	...
2000228c:	e0c08000 	sbc	r8, r0, r0
20002290:	f8f0f0e0 			; <UNDEFINED> instruction: 0xf8f0f0e0
20002294:	fef8f8f8 	mrc2	8, 7, pc, cr8, cr8, {7}
20002298:	fefefefe 	mrc2	14, 7, pc, cr14, cr14, {7}
2000229c:	fffffffe 			; <UNDEFINED> instruction: 0xfffffffe
200022a0:	ffffffff 			; <UNDEFINED> instruction: 0xffffffff
200022a4:	ffffffff 			; <UNDEFINED> instruction: 0xffffffff
200022a8:	ffffffff 			; <UNDEFINED> instruction: 0xffffffff
200022ac:	ffffffff 			; <UNDEFINED> instruction: 0xffffffff
200022b0:	ffffffff 			; <UNDEFINED> instruction: 0xffffffff
200022b4:	ffffffff 			; <UNDEFINED> instruction: 0xffffffff
200022b8:	cfffffff 	svcgt	0x00ffffff
200022bc:	f7ffe7ff 			; <UNDEFINED> instruction: 0xf7ffe7ff
200022c0:	ffff9f87 			; <UNDEFINED> instruction: 0xffff9f87
200022c4:	f8feffff 			; <UNDEFINED> instruction: 0xf8feffff
200022c8:	e0e0e0f0 	strd	lr, [r0], #0	; <UNPREDICTABLE>
200022cc:	10306060 	eorsne	r6, r0, r0, rrx
200022d0:	00000708 	andeq	r0, r0, r8, lsl #14
	...
200022f0:	e0e00000 	rsc	r0, r0, r0
200022f4:	70f0f0f0 	ldrshtvc	pc, [r0], #0	; <UNPREDICTABLE>
200022f8:	ff7f7070 			; <UNDEFINED> instruction: 0xff7f7070
200022fc:	ffffffff 			; <UNDEFINED> instruction: 0xffffffff
20002300:	ffffffff 			; <UNDEFINED> instruction: 0xffffffff
20002304:	ffffffff 			; <UNDEFINED> instruction: 0xffffffff
20002308:	ffffffff 			; <UNDEFINED> instruction: 0xffffffff
2000230c:	ffffffff 			; <UNDEFINED> instruction: 0xffffffff
20002310:	ffffffff 			; <UNDEFINED> instruction: 0xffffffff
20002314:	ffffffff 			; <UNDEFINED> instruction: 0xffffffff
20002318:	ffffffff 			; <UNDEFINED> instruction: 0xffffffff
2000231c:	ffffffff 			; <UNDEFINED> instruction: 0xffffffff
20002320:	ffffffff 			; <UNDEFINED> instruction: 0xffffffff
20002324:	ffffffff 			; <UNDEFINED> instruction: 0xffffffff
20002328:	ffffffff 			; <UNDEFINED> instruction: 0xffffffff
2000232c:	ffffffff 			; <UNDEFINED> instruction: 0xffffffff
20002330:	ffffff7f 			; <UNDEFINED> instruction: 0xffffff7f
20002334:	0707ffff 			; <UNDEFINED> instruction: 0x0707ffff
20002338:	00000001 	andeq	r0, r0, r1
	...
20002360:	7f3f0f07 	svcvc	0x003f0f07
20002364:	f0f8fcff 			; <UNDEFINED> instruction: 0xf0f8fcff
20002368:	0783c0e0 	streq	ip, [r3, r0, ror #1]
2000236c:	ff1f0f0f 			; <UNDEFINED> instruction: 0xff1f0f0f
20002370:	ffffffff 			; <UNDEFINED> instruction: 0xffffffff
20002374:	ffffffff 			; <UNDEFINED> instruction: 0xffffffff
20002378:	ffffffff 			; <UNDEFINED> instruction: 0xffffffff
2000237c:	ffffffff 			; <UNDEFINED> instruction: 0xffffffff
20002380:	ffffffff 			; <UNDEFINED> instruction: 0xffffffff
20002384:	ffffffff 			; <UNDEFINED> instruction: 0xffffffff
20002388:	ffffffff 			; <UNDEFINED> instruction: 0xffffffff
2000238c:	7fffffff 	svcvc	0x00ffffff
20002390:	3f3f7f7f 	svccc	0x003f7f7f
20002394:	0f0f1f1f 	svceq	0x000f1f1f
20002398:	0303070f 	movweq	r0, #14095	; 0x370f
2000239c:	ff000000 			; <UNDEFINED> instruction: 0xff000000
200023a0:	7fffffff 	svcvc	0x00ffffff
	...
200023cc:	04000000 	streq	r0, [r0], #-0
200023d0:	07070707 	streq	r0, [r7, -r7, lsl #14]
200023d4:	07070707 	streq	r0, [r7, -r7, lsl #14]
200023d8:	00000707 	andeq	r0, r0, r7, lsl #14
200023dc:	1f0f0700 	svcne	0x000f0700
200023e0:	f8ffffbf 			; <UNDEFINED> instruction: 0xf8ffffbf
200023e4:	c7e7e3f8 			; <UNDEFINED> instruction: 0xc7e7e3f8
200023e8:	878787c7 	strhi	r8, [r7, r7, asr #15]
200023ec:	0f0f0f07 	svceq	0x000f0f07
200023f0:	0707070f 	streq	r0, [r7, -pc, lsl #14]
200023f4:	03030303 	movweq	r0, #13059	; 0x3303
200023f8:	01010303 	tsteq	r1, r3, lsl #6
	...
20002408:	18080808 	stmdane	r8, {r3, fp}
2000240c:	1f1f1f18 	svcne	0x001f1f18
20002410:	1c1c1c1f 	ldcne	12, cr1, [ip], {31}
20002414:	00081c1c 	andeq	r1, r8, ip, lsl ip
	...

Disassembly of section .bss:

20002430 <oled_buffer>:
	...

Disassembly of section .comment:

00000000 <.comment>:
   0:	3a434347 	bcc	10d0d24 <vectors-0x6f2f2dc>
   4:	72412820 	subvc	r2, r1, #32, 16	; 0x200000
   8:	4e47206d 	cdpmi	0, 4, cr2, cr7, cr13, {3}
   c:	6f542055 	svcvs	0x00542055
  10:	68636c6f 	stmdavs	r3!, {r0, r1, r2, r3, r5, r6, sl, fp, sp, lr}^
  14:	206e6961 	rsbcs	r6, lr, r1, ror #18
  18:	322e3231 	eorcc	r3, lr, #268435459	; 0x10000003
  1c:	6c65522e 	sfmvs	f5, 2, [r5], #-184	; 0xffffff48
  20:	42282031 	eormi	r2, r8, #49	; 0x31
  24:	646c6975 	strbtvs	r6, [ip], #-2421	; 0xfffff68b
  28:	6d726120 	ldfvse	f6, [r2, #-128]!	; 0xffffff80
  2c:	2e32312d 	rsfcssp	f3, f2, #5.0
  30:	29293432 	stmdbcs	r9!, {r1, r4, r5, sl, ip, sp}
  34:	2e323120 	rsfcssp	f3, f2, f0
  38:	20312e32 	eorscs	r2, r1, r2, lsr lr
  3c:	32323032 	eorscc	r3, r2, #50	; 0x32
  40:	35303231 	ldrcc	r3, [r0, #-561]!	; 0xfffffdcf
	...

Disassembly of section .ARM.attributes:

00000000 <.ARM.attributes>:
   0:	00002c41 	andeq	r2, r0, r1, asr #24
   4:	61656100 	cmnvs	r5, r0, lsl #2
   8:	01006962 	tsteq	r0, r2, ror #18
   c:	00000022 	andeq	r0, r0, r2, lsr #32
  10:	4d2d3705 	stcmi	7, cr3, [sp, #-20]!	; 0xffffffec
  14:	070a0600 	streq	r0, [sl, -r0, lsl #12]
  18:	1202094d 	andne	r0, r2, #1261568	; 0x134000
  1c:	15011404 	strne	r1, [r1, #-1028]	; 0xfffffbfc
  20:	18031701 	stmdane	r3, {r0, r8, r9, sl, ip}
  24:	1a011901 	bne	46430 <vectors-0x7fb9bd0>
  28:	22061e01 	andcs	r1, r6, #1, 28
  2c:	Address 0x000000000000002c is out of bounds.

